mads 2.1.7 build 21 (20 May 24)
Source: nhp30.asm
     1 												    ICL 'sys_equates.m65'
Source: sys_equates.m65
     1 												;================================================================================
     2 												; System equates, Atari XL + mads [NRV 2009]
     3 												;================================================================================
     4
     5 												;----------------------------------------
     6 												; GTIA:
     7 												;----------------------------------------
     8
     9 = D000											M0PF	= $D000  ; read only
    10 = D001											M1PF	= $D001  ; read only
    11 = D002											M2PF	= $D002  ; read only
    12 = D003											M3PF	= $D003  ; read only
    13
    14 = D004											P0PF	= $D004  ; read only
    15 = D005											P1PF	= $D005  ; read only
    16 = D006											P2PF	= $D006  ; read only
    17 = D007											P3PF	= $D007  ; read only
    18
    19 = D008											M0PL	= $D008  ; read only
    20 = D009											M1PL	= $D009  ; read only
    21 = D00A											M2PL	= $D00A  ; read only
    22 = D00B											M3PL	= $D00B  ; read only
    23
    24 = D00C											P0PL	= $D00C  ; read only
    25 = D00D											P1PL	= $D00D  ; read only
    26 = D00E											P2PL	= $D00E  ; read only
    27 = D00F											P3PL	= $D00F  ; read only
    28
    29 = D010											TRIG0	= $D010  ; read only
    30 = D011											TRIG1	= $D011  ; read only
    31 = D012											TRIG2	= $D012  ; read only
    32 = D013											TRIG3	= $D013  ; read only
    33
    34 = D014											PAL		= $D014  ; read only
    35
    36 												; positions for normal screen: 48 left (+160)--> 208 right (or 32-->224 for wide playfield)
    37 												; 32 top (+192)--> 224 bottom (or 16-->112 for double line resolution)
    38 = D000											HPOSP0	= $D000  ; write only
    39 = D001											HPOSP1	= $D001  ; write only
    40 = D002											HPOSP2	= $D002  ; write only
    41 = D003											HPOSP3	= $D003  ; write only
    42
    43 = D004											HPOSM0	= $D004  ; write only
    44 = D005											HPOSM1	= $D005  ; write only
    45 = D006											HPOSM2	= $D006  ; write only
    46 = D007											HPOSM3	= $D007  ; write only
    47
    48 												; 0 (or 2) normal width, 1 double width, 4 quadruple width
    49 = D008											SIZEP0	= $D008  ; write only
    50 = D009											SIZEP1	= $D009  ; write only
    51 = D00A											SIZEP2	= $D00A  ; write only
    52 = D00B											SIZEP3	= $D00B  ; write only
    53
    54 = D00C											SIZEM	= $D00C  ; write only		// the same 2 bits as the players, but in one byte, in this order: m3m2m1m0
    55
    56 = D00D											GRAFP0	= $D00D  ; write only
    57 = D00E											GRAFP1	= $D00E  ; write only
    58 = D00F											GRAFP2	= $D00F  ; write only
    59 = D010											GRAFP3	= $D010  ; write only
    60
    61 = D011											GRAFM	= $D011  ; write only		// 4 missiles in this order: m3m2m1m0
    62
    63 = D012											COLPM0	= $D012  ; write only
    64 = D013											COLPM1	= $D013  ; write only
    65 = D014											COLPM2	= $D014  ; write only
    66 = D015											COLPM3	= $D015  ; write only
    67
    68 = D016											COLPF0	= $D016  ; write only
    69 = D017											COLPF1	= $D017  ; write only
    70 = D018											COLPF2	= $D018  ; write only
    71 = D019											COLPF3	= $D019  ; write only
    72
    73 = D01A											COLBK	= $D01A  ; write only
    74
    75 = D01B											PRIOR	= $D01B  ; write only
    76 = D01C											VDELAY	= $D01C  ; write only
    77 = D01D											GRACTL	= $D01D  ; write only
    78 = D01E											HITCLR	= $D01E  ; write only
    79
    80 = D01F											CONSOL	= $D01F  ; read and write
    81
    82 												;----------------------------------------
    83 												; POKEY:
    84 												;----------------------------------------
    85
    86 = D200											POT0	= $D200  ; read only
    87 = D201											POT1	= $D201  ; read only
    88 = D202											POT2	= $D202  ; read only
    89 = D203											POT3	= $D203  ; read only
    90 = D204											POT4	= $D204  ; read only
    91 = D205											POT5	= $D205  ; read only
    92 = D206											POT6	= $D206  ; read only
    93 = D207											POT7	= $D207  ; read only
    94
    95 = D208											ALLPOT	= $D208  ; read only
    96
    97 = D209											KBCODE	= $D209  ; read only
    98 = D20A											RANDOM	= $D20A  ; read only
    99
   100 = D20D											SERIN	= $D20D  ; read only
   101 = D20E											IRQST	= $D20E  ; read only
   102 = D20F											SKSTAT	= $D20F  ; read only
   103
   104
   105 = D200											AUDF1	= $D200  ; write only
   106 = D201											AUDC1	= $D201  ; write only
   107 = D202											AUDF2	= $D202  ; write only
   108 = D203											AUDC2	= $D203  ; write only
   109 = D204											AUDF3	= $D204  ; write only
   110 = D205											AUDC3	= $D205  ; write only
   111 = D206											AUDF4	= $D206  ; write only
   112 = D207											AUDC4	= $D207  ; write only
   113
   114 = D208											AUDCTL	= $D208  ; write only
   115
   116 = D209											STIMER	= $D209  ; write only
   117 = D20A											SKREST	= $D20A  ; write only
   118 = D20B											POTGO	= $D20B  ; write only
   119
   120 = D20D											SEROUT	= $D20D  ; write only
   121 = D20E											IRQEN	= $D20E  ; write only
   122 = D20F											SKCTL	= $D20F  ; write only
   123
   124 												;----------------------------------------
   125 												; PIA:
   126 												;----------------------------------------
   127
   128 = D300											PORTA	= $D300  ; read and write
   129 = D301											PORTB	= $D301  ; read and write
   130 = D302											PACTL	= $D302  ; read and write
   131 = D303											PBCTL	= $D303  ; read and write
   132
   133 												;----------------------------------------
   134 												; ANTIC:
   135 												;----------------------------------------
   136
   137 = D40B											VCOUNT	= $D40B  ; read only
   138
   139 = D40C											PENH	= $D40C  ; read only
   140 = D40D											PENV	= $D40D  ; read only
   141
   142 = D40F											NMIST	= $D40F  ; read only
   143
   144
   145 = D400											DMACTL	= $D400  ; write only
   146 = D401											CHACTL	= $D401  ; write only
   147 = D402											DLISTL	= $D402  ; write only
   148 = D403											DLISTH	= $D403  ; write only
   149 = D404											HSCROL	= $D404  ; write only
   150 = D405											VSCROL	= $D405  ; write only
   151 = D407											PMBASE	= $D407  ; write only
   152 = D409											CHBASE	= $D409  ; write only
   153 = D40A											WSYNC	= $D40A  ; write only
   154 = D40E											NMIEN	= $D40E  ; write only
   155 = D40F											NMIRES	= $D40F  ; write only
   156
   157 												;----------------------------------------
   158 												; Shadow registers:
   159 												;----------------------------------------
   160
   161 = 0218											CDTMV1	= $218
   162 = 021A											CDTMV2	= $21a
   163 = 021C											CDTMV3	= $21c
   164 = 021E											CDTMV4	= $21e
   165 = 0220											CDTMV5	= $220
   166
   167
   168 = 022F											SDMCTL	= $22f	; shadow of DMACTL
   169 = 026F											GPRIOR	= $26f	; shadow of PRIOR
   170
   171 = 02C0											PCOLR0	= $2c0	; shadow of COLPM0
   172 = 02C1											PCOLR1  = $2c1
   173 = 02C2											PCOLR2  = $2c2
   174 = 02C3											PCOLR3  = $2c3
   175 = 02C4											COLOR0	= $2c4	; shadow of COLPF0
   176 = 02C5											COLOR1  = $2c5
   177 = 02C6											COLOR2  = $2c6
   178 = 02C7											COLOR3  = $2c7
   179 = 02C8											COLOR4  = $2c8
   180
   181 = 02E0											RUNAD	= $2e0
   182 = 02E2											INITAD	= $2e2
   183
   184 = 0014											RTCLOCK	= $14
   185 = 0041											SOUNDR	= $41
   186 = 0042											CRITIC	= $42
   187 = 004D											ATRACT	= 77
   188
   189 = 0052											LMARGN = $52
   190 = 0053											RMARGN = $53
   191 = 006A											RAMTOP = $6A
   192
   193 = 02F4											CHBAS	= 756	; shadow of CHBASE
   194 = 02FC											CH		= 764
   195 = 02F3											CHACT	= 755
   196
   197 = 0340											ICHID = $340
   198 = 0341											ICDNO = $341
   199 = 0342											ICCMD = $342
   200 = 0343											ICSTA = $343
   201 = 0344											ICBAL = $344
   202 = 0345											ICBAH = $345
   203 = 0346											ICPTL = $346
   204 = 0347											ICPTH = $347
   205 = 0348											ICBLL = $348
   206 = 0349											ICBLH = $349
   207 = 034A											ICAX1 = $34A
   208 = 034B											ICAX2 = $34B
   209
   210 = 03F8											BASICF  = $3f8
   211 = 03FA											GINTLK  = $3fa
   212
   213
   214 = 0230											SDLSTL	= $230	; display list address
   215 = 0200											VDSLST	= $200	; DLI address
   216
   217 = 0303											DSTATS	= $303
   218 = 0304											DBUFLO	= $304
   219 = 0305											DBUFHI	= $305
   220
   221 = 030A											DAUX1	= $30A
   222 = 030B											DAUX2	= $30B
   223
   224
   225 = 0270											PADDL0	= 624	; 0-228 , shadow of POT0
   226 = 027C											PTRIG0	= 636	; 0 = PRESSED , shadow of PTRG0
   227 = 0278											STICK0	= 632	; 0000 = RLDU , shadow of PORTA
   228 = 0284											STRIG0	= 644	; 0 = PRESSED , shadow of TRIG0
   229
   230 = 0244											COLDST	= $244	; non zero --> do a cold start when pressing the reset key
   231
   232 												;----------------------------------------
   233 												; VBI:
   234 												;----------------------------------------
   235
   236 = E45C											SETVBV			= $E45C
   237 = E45F											XITVB_I			= $E45F
   238 = E45F											SYSVBV			= $E45F
   239 = E462											XITVB_D			= $E462
   240 = E462											XITVBV			= $E462
   241 = 0006											VBI_I			= 6
   242 = 0007											VBI_D			= 7
   243 = C0E2											NORMAL_VBI_I	= 49378
   244 = C28A											NORMAL_VBI_D	= 49802
   245 = 0222											VVBLKI			= 546
   246 = 0224											VVBLKD			= 548
   247 = E462											XITVB			= XITVB_D
   248
   249 												;----------------------------------------
   250 												; Handler vectors:
   251 												;----------------------------------------
   252
   253 = FFFA											NMIH_VECTOR		= 65530
   254 = FFFC											RESH_VECTOR		= 65532
   255 = FFFE											IRQH_VECTOR		= 65534
   256
   257 												;----------------------------------------
   258 												; I/O:
   259 												;----------------------------------------
   260
   261 = E456											CIOV			= $E456	; (58454)
   262 = E459											SIOV			= $E459	; (58457)
   263
   264 												;----------------------------------------
   265 												; Restart routines
   266 												;----------------------------------------
   267
   268 = E474											WARMSV			= $E474
   269 = E477											COLDSV			= $E477
   270
   271 												;----------------------------------------
   272 												; Bit values:
   273 												;----------------------------------------
   274
   275 												; DMA values
   276 = 0020											DV_DMA_ON			= %00100000
   277 = 0010											DV_PM_ONE_LINE		= %00010000
   278 = 0008											DV_PLAYERS_ON		= %00001000
   279 = 0004											DV_MISSILES_ON		= %00000100
   280 = 0003											DV_WIDE_PF			= %00000011
   281 = 0002											DV_NORMAL_PF		= %00000010
   282 = 0001											DV_NARROW_PF		= %00000001
   283
   284 												; Display list values
   285 = 0080											DL_DLI_MASK		= %10000000
   286 = 0040											DL_LMS_MASK		= %01000000
   287 = 0020											DL_VSCROLL_MASK	= %00100000
   288 = 0010											DL_HSCROLL_MASK	= %00010000
   289
   290 = 0001											DL_JMP		= 1
   291 = 0041											DL_JVB		= 65
   292
   293 = 0000											DL_BLANK_1	= 0
   294 = 0010											DL_BLANK_2	= 16
   295 = 0020											DL_BLANK_3	= 32
   296 = 0030											DL_BLANK_4	= 48
   297 = 0040											DL_BLANK_5	= 64
   298 = 0050											DL_BLANK_6	= 80
   299 = 0060											DL_BLANK_7	= 96
   300 = 0070											DL_BLANK_8	= 112
   301
   302 												; Antic graphic modes
   303 = 0002											GM_CHAR_A2	= 2			; 2 colors, 40x24, 960b, 40xline, 8 scanlines
   304 = 0006											GM_CHAR_A6	= 6			; 4 colors, 20x24, 480b, 40xline, 8 scanlines
   305 = 0007											GM_CHAR_A7	= 7			; 4 colors, 20x12, 240b, 20xline, 16 scanlines
   306 = 0004											GM_CHAR_A4	= 4			; 5 colors, 40x24, 960b, 40xline, 8 scanlines
   307 = 0005											GM_CHAR_A5	= 5			; 5 colors, 40x12, 480b, 40xline, 16 scanlines
   308 = 0003											GM_CHAR_A3	= 3			; 2 colors, 40x24, 760b, 40xline, 10 scanlines
   309
   310 												; Basic graphic modes
   311 = 0002											GM_CHAR_G0	= 2			; 2 colors, 40x24, 960b, 40xline, 8 scanlines
   312 = 0006											GM_CHAR_G1	= 6			; 4 colors, 20x24, 480b, 40xline, 8 scanlines
   313 = 0007											GM_CHAR_G2	= 7			; 4 colors, 20x12, 240b, 20xline, 16 scanlines
   314 = 0004											GM_CHAR_G12	= 4			; 5 colors, 40x24, 960b, 40xline, 8 scanlines
   315 = 0005											GM_CHAR_G13	= 5			; 5 colors, 40x12, 480b, 40xline, 16 scanlines
   316
   317 = 0008											GM_PIXEL_G3	= 8			; 4 colors, 40x24, 240b, 10xline, 8 scanline
   318 = 0009											GM_PIXEL_G4	= 9			; 2 colors, 80x48, 480b, 10xline, 4 scanline
   319 = 000A											GM_PIXEL_G5	= 10		; 4 colors, 80x48, 960b, 20xline, 4 scanline
   320 = 000B											GM_PIXEL_G6	= 11		; 2 colors, 160x96, 1920b, 20xline, 2 scanline
   321 = 000D											GM_PIXEL_G7	= 13		; 4 colors, 160x96, 3840b, 40xline, 2 scanline
   322 = 000F											GM_PIXEL_G8	= 15		; 2 colors, 320x192, 7680b, 40xline, 1 scanline
   323 = 000C											GM_PIXEL_G14	= 12	; 2 colors, 160x192, 3840b, 20xline, 1 scanline
   324 = 000E											GM_PIXEL_G15	= 14	; 4 colors, 160x192, 7680b, 40xline, 1 scanline
   325
   326 = 000F											GM_PIXEL_G9	= 15		; 1 color, 80x192, 7680b, 40xline, 1 scanline
   327 = 000F											GM_PIXEL_G10	= 15	; 9 colors, 80x192, 7680b, 40xline, 1 scanline
   328 = 000F											GM_PIXEL_G11	= 15	; 16 colors, 80x192, 7680b, 40xline, 1 scanline
   329
   330 												; Prior values
   331 = 0001											PRV_PM_PRIORITY_1	= %00000001		; p0 p1 p2 p3 / pf0 pf1 pf2 pf3 (p5) / bk
   332 = 0002											PRV_PM_PRIORITY_2	= %00000010		; p0 p1 / pf0 pf1 pf2 pf3 (p5) / p2 p3 / bk
   333 = 0004											PRV_PM_PRIORITY_3	= %00000100		; pf0 pf1 pf2 pf3 (p5) /  p0 p1 p2 p3 / bk
   334 = 0008											PRV_PM_PRIORITY_4	= %00001000		; pf1 pf2 /  p0 p1 p2 p3 / pf0 pf3 (p5) / bk
   335 = 0010											PRV_FIFTH_PLAYER	= %00010000
   336 = 0020											PRV_PM_OVERLAP		= %00100000
   337 = 0040											PRV_GTIA_9			= %01000000
   338 = 0080											PRV_GTIA_10			= %10000000
   339 = 00C0											PRV_GTIA_11			= %11000000
   340
   341 												; Gractl values
   342 = 0001											GCTL_MISSILES		= %001
   343 = 0002											GCTL_PLAYERS		= %010
   344 = 0004											GCTL_LATCH_TRIGGERS	= %100
   345
   346 												; Consol values:
   347 = 0001											CNV_START_MASK		= %001
   348 = 0002											CNV_OPTION_MASK		= %010
   349 = 0004											CNV_SELECT_MASK		= %100
   350
   351 												; Stick values:
   352 = 0008											STV_RIGHT_MASK		= %1000
   353 = 0004											STV_LEFT_MASK		= %0100
   354 = 0002											STV_DOWN_MASK		= %0010
   355 = 0001											STV_UP_MASK			= %0001
   356
   357 = 0008											STICK_MASK_RIGHT	= %1000
   358 = 0004											STICK_MASK_LEFT		= %0100
   359 = 0002											STICK_MASK_DOWN		= %0010
   360 = 0001											STICK_MASK_UP		= %0001
   361
   362 = 0007											STICK_VALUE_RIGHT	= %0111
   363 = 000B											STICK_VALUE_LEFT	= %1011
   364 = 000D											STICK_VALUE_DOWN	= %1101
   365 = 000E											STICK_VALUE_UP		= %1110
   366
   367 												/*
   368 												KBCode Hexadecimal Values
   369 												 	$00	$01	$02	$03	$04	$05	$06	$07	$08	$09	$0A	$0B	$0C	$0D	$0E	$0F
   370 												$00	L	J	;	F1	F2	K	+	*	O	 	P	U	CR	I	-	=
   371 												$10	V	Hlp	C	F3	F4	B	X	Z	4	 	3	6	Esc	5	2	1
   372 												$20	,	Spc	.	N	 	M	/	Inv	R	 	E	Y	Tab	T	W	Q
   373 												$30	9	 	0	7	BS	8	<	>	F	H	D	 	Cap	G	S	A
   374
   375 												together with Shift Key: add +$40
   376 												together with Control key: add +$80 
   377 												*/
   377
     2 												    ICL 'sys_macros.m65'
Source: sys_macros.m65
     1 												;================================================================================
     2 												; System macros, Atari XL + mads [NRV 2009]
     3 												;================================================================================
     4
     5 												;--------------------------------------------------------------------------------
     6 												; SetVector [address] [word]
     7 												;--------------------------------------------------------------------------------
     8
     9 													.macro SetVector
    10 													   .if :0 <> 2
    11 													      .error "SetVector error"
    12 												
    13 													   .else
    14 													      lda #<:2
    15 													      sta :1
    16 													      lda #>:2
    17 													      sta :1+1
    18 													   .endif
    19 												
    20 													.endm
    21
    22
    23 												;--------------------------------------------------------------------------------
    24 												; SetColor [0..4] [0..255]
    25 												; SetColor [0..4] [0..15] [0..15]
    26 												;--------------------------------------------------------------------------------
    27
    28 													.macro SetColor
    29 													   .if :0 < 2 .or :0 > 3
    30 													      .error "SetColor error"
    31 												
    32 													   .else
    33 													      .if :0 = 2
    34 													          lda #:2
    35 													          sta COLPF0+:1
    36 													      .else
    37 													          lda #[:2 * 16 + :3]
    38 													          sta COLPF0+:1
    39 													      .endif
    40 													   .endif
    41 												
    42 													.endm
    43
    44
    45 												;--------------------------------------------------------------------------------
    46 												; SetPMColor [0..3] [0..255]
    47 												; SetPMColor [0..3] [0..15] [0..15]
    48 												;--------------------------------------------------------------------------------
    49
    50 													.macro SetPMColor
    51 													   .if :0 < 2 .or :0 > 3
    52 													      .error "SetPMColor error"
    53 												
    54 													   .else
    55 													      .if :0 = 2
    56 													          lda #:2
    57 													          sta COLPM0+:1
    58 													      .else
    59 													          lda #[:2 * 16 + :3]
    60 													          sta COLPM0+:1
    61 													      .endif
    62 													   .endif
    63 												
    64 													.endm
    65
    66
    67 												;--------------------------------------------------------------------------------
    68 												; VcountSync [0..130]
    69 												; (maximum limit is different on PAL: 155)
    70 												; (could wait forever if there are interrupts activated!)
    71 												; (or if some other "thread" uses "wsync")
    72 												;--------------------------------------------------------------------------------
    73
    74 													.macro VcountSync
    75 													   .if :0 <> 1
    76 													      .error "VcountSync error"
    77 												
    78 													   .else
    79 													      sta WSYNC
    80 												
    81 													      lda #:1
    82 												VSync1	 cmp VCOUNT
    83 													      bne VSync1
    84 												
    85 													      lda #:1+1
    86 												VSync2	 cmp VCOUNT
    87 													      bne VSync2
    88 												
    89 													      sta WSYNC
    90 													   .endif
    91 												
    92 													.endm
    93
    94
    95 												;--------------------------------------------------------------------------------
    96 												; VcountWait [0..130]
    97 												; (maximum limit is different on PAL: 155)
    98 												;--------------------------------------------------------------------------------
    99
   100 													.macro VcountWait
   101 													   .if :0 <> 1
   102 													      .error "VcountWait error"
   103 												
   104 													   .else
   105 													      lda #:1
   106 												VWait1	 cmp VCOUNT
   107 													      bne VWait1
   108 													   .endif
   109 												
   110 													.endm
   111
   112
   113 												;--------------------------------------------------------------------------------
   114 												; VcountWaitUntilEnter [0..129] [(p1+1)..130]
   115 												; (maximum limit is different on PAL: 155)
   116 												;--------------------------------------------------------------------------------
   117
   118 													.macro VcountWaitUntilEnter
   119 													   .if :0 <> 2 .or :1 >= :2
   120 													      .error "VcountWaitUntilEnter error"
   121 												
   122 													   .else
   123 												VWait1     lda VCOUNT
   124 														 cmp #:1
   125 														 beq VExit
   126 													      bcc VWait1	; VCOUNT < :1
   127 														 cmp #:2
   128 														 beq VExit
   129 													      bcs VWait1	; VCOUNT >= :2
   130 												VExit
   131 													   .endif
   132 												
   133 													.endm
   134
   135
   136 												;--------------------------------------------------------------------------------
   137 												; VcountWaitUntilExit [0..129] [(p1+1)..130]
   138 												; (maximum limit is different on PAL: 155)
   139 												;--------------------------------------------------------------------------------
   140
   141 													.macro VcountWaitUntilExit
   142 													   .if :0 <> 2 .or :1 >= :2
   143 													      .error "VcountWaitUntilExit error"
   144 												
   145 													   .else
   146 												VWait1     lda VCOUNT
   147 														 cmp #:1
   148 														 beq VWait1
   149 													      bcc VExit	; VCOUNT < :1
   150 														 cmp #:2
   151 													      bcc VWait1	; VCOUNT < :2
   152 														 beq VWait1
   153 												VExit
   154 													   .endif
   155 												
   156 													.endm
   157
   158
   159 												;--------------------------------------------------------------------------------
   160 												; MarkScanLine [0..255] [0..255]
   161 												; (mark the current scan line with a color)
   162 												;--------------------------------------------------------------------------------
   163
   164 													.macro MarkScanLine
   165 													   .if :0 <> 0 .and :0 <> 2
   166 													      .error "MarkScanLine error"
   167 												
   168 													   .else
   169 													  	   .if :0 = 0
   170 												  		      sta WSYNC
   171 												  	     	 lda #255		; mark color
   172 													  	      sta COLBK
   173 												
   174 												  		      sta WSYNC
   175 												  	     	 lda #0		; restore color
   176 													  	      sta COLBK
   177 												
   178 												  		   .else
   179 													     	 sta WSYNC
   180 														      lda #:1		; mark color
   181 														      sta COLBK
   182 												
   183 														      sta WSYNC
   184 														      lda #:2		; restore color
   185 													     	 sta COLBK
   186 														   .endif
   187 													   .endif
   188 												
   189 													.endm
   190
   191
   192 												;--------------------------------------------------------------------------------
   193 												; MarkScanLineIfConsol [0..255] [0..255]
   194 												; (mark the current scan line with a color, if a consol key is pressed)
   195 												;--------------------------------------------------------------------------------
   196
   197 													.macro MarkScanLineIfConsol
   198 													   .if :0 <> 0 .and :0 <> 2
   199 													      .error "MarkScanLineIfConsol error"
   200 												
   201 													   .else
   202 														 .if :0 = 0
   203 														      lda CONSOL
   204 														      and #%111
   205 													     	 cmp #%111
   206 														      beq ExitMarkScanLineIfConsol
   207 												
   208 														      sta WSYNC
   209 														      lda #255		; mark color
   210 														      sta COLBK
   211 												
   212 														      sta WSYNC
   213 														      lda #0		; restore color
   214 													     	 sta COLBK
   215 												
   216 													   	 .else
   217 														      lda CONSOL
   218 														      and #%111
   219 													     	 cmp #%111
   220 														      beq ExitMarkScanLineIfConsol
   221 												
   222 														      sta WSYNC
   223 													     	 lda #:1		; mark color
   224 														      sta COLBK
   225 												
   226 														      sta WSYNC
   227 													     	 lda #:2		; restore color
   228 														      sta COLBK
   229 												
   230 													   	 .endif
   231 													   .endif
   232 												
   233 												ExitMarkScanLineIfConsol
   234 												
   235 													.endm
   236
   237
   238 												;--------------------------------------------------------------------------------
   239 												; MarkCyclesIfConsol [0..255] [0..255]
   240 												; (mark the current scan position with a color, for some cycles)
   241 												;--------------------------------------------------------------------------------
   242
   243 													.macro MarkCyclesIfConsol
   244 													   .if :0 = 0
   245 													      lda CONSOL
   246 													      and #%111
   247 													      cmp #%111
   248 													      beq ExitMarkCyclesIfConsol
   249 												
   250 													      lda #255		; mark color
   251 													      sta COLBK
   252 												
   253 													      lda ($00),y	; dummy 5 cycles
   254 													      lda ($00),y	; dummy 5 cycles
   255 													      lda ($00),y	; dummy 5 cycles
   256 													      lda ($00),y	; dummy 5 cycles
   257 													      lda ($00),y	; dummy 5 cycles
   258 													      lda ($00),y	; dummy 5 cycles
   259 												
   260 													      lda #0		; restore color
   261 													      sta COLBK
   262 												
   263 													   .elseif :0 = 2
   264 													      lda CONSOL
   265 													      and #%111
   266 													      cmp #%111
   267 													      beq ExitMarkCyclesIfConsol
   268 												
   269 													      lda #:1		; mark color
   270 													      sta COLBK
   271 												
   272 													      lda ($00),y	; dummy 5 cycles
   273 													      lda ($00),y	; dummy 5 cycles
   274 													      lda ($00),y	; dummy 5 cycles
   275 													      lda ($00),y	; dummy 5 cycles
   276 													      lda ($00),y	; dummy 5 cycles
   277 													      lda ($00),y	; dummy 5 cycles
   278 												
   279 													      lda #:2		; restore color
   280 													      sta COLBK
   281 												
   282 													   .else
   283 													      .error "MarkCyclesIfConsol error"
   284 												
   285 													   .endif
   286 												
   287 												ExitMarkCyclesIfConsol
   288 												
   289 													.endm
   290
   291
   292 												;--------------------------------------------------------------------------------
   293 												; SetBasic [0,1]
   294 												;--------------------------------------------------------------------------------
   295
   296 													.macro SetBasic
   297 													   .if :0 <> 1
   298 													      .error "SetBasic error"
   299 												
   300 													   .else
   301 													      .if :1 = 0
   302 													         lda PORTB	; deactivate Basic
   303 													         ora #%00000010
   304 													         sta PORTB
   305 													      .else
   306 													         lda PORTB	; activate Basic
   307 													         and #%11111101
   308 													         sta PORTB
   309 													      .endif
   310 													   .endif
   311 												
   312 													.endm
   313
   314
   315 												;--------------------------------------------------------------------------------
   316 												; SetOperativeSystem [0,1]
   317 												;--------------------------------------------------------------------------------
   318
   319 													.macro SetOperativeSystem
   320 													   .if :0 <> 1
   321 													      .error "SetOperativeSystem error"
   322 												
   323 													   .else
   324 													      .if :1 = 0
   325 													         lda PORTB	; deactivate Operative System
   326 													         and #%11111110
   327 													         sta PORTB
   328 													      .else
   329 													         lda PORTB	; activate Operative System
   330 													         ora #%00000001
   331 													         sta PORTB
   332 													      .endif
   333 													   .endif
   334 												
   335 													.endm
   336
   337
   338 												;--------------------------------------------------------------------------------
   339 												; EnableBasic
   340 												;--------------------------------------------------------------------------------
   341
   342 													.macro EnableBasic
   343 													   .if :0 <> 0
   344 													      .error "EnableBasic error"
   345 												
   346 													   .else
   347 													      SetBasic 1
   348 													   .endif
   349 												
   350 													.endm
   351
   352
   353 												;--------------------------------------------------------------------------------
   354 												; DisableBasic
   355 												;--------------------------------------------------------------------------------
   356
   357 													.macro DisableBasic
   358 													   .if :0 <> 0
   359 													      .error "DisableBasic error"
   360 												
   361 													   .else
   362 													      SetBasic 0
   363 													   .endif
   364 												
   365 													.endm
   366
   367
   368 												;--------------------------------------------------------------------------------
   369 												; EnableOperativeSystem
   370 												;--------------------------------------------------------------------------------
   371
   372 													.macro EnableOperativeSystem
   373 													   .if :0 <> 0
   374 													      .error "EnableOperativeSystem error"
   375 												
   376 													   .else
   377 													      SetOperativeSystem 1
   378 													   .endif
   379 												
   380 													.endm
   381
   382
   383 												;--------------------------------------------------------------------------------
   384 												; DisableOperativeSystem
   385 												;--------------------------------------------------------------------------------
   386
   387 													.macro DisableOperativeSystem
   388 													   .if :0 <> 0
   389 													      .error "DisableOperativeSystem error"
   390 												
   391 													   .else
   392 													      SetOperativeSystem 0
   393 													   .endif
   394 												
   395 													.endm
   396
   397
   398 												;--------------------------------------------------------------------------------
   399 												; EnableNormalInterrupts
   400 												;--------------------------------------------------------------------------------
   401
   402 													.macro EnableNormalInterrupts
   403 													   .if :0 <> 0
   404 													      .error "EnableNormalInterrupts error"
   405 												
   406 													   .else
   407 													      cli
   408 												;	      lda #[8+16+32]	; serial I/O interrupts
   409 												;	      lda #[64+128]		; keyboard and break interrupts (only ones enabled on powerup)
   410 												;	      sta IRQEN
   411 													      lda #64			; VBI interrupt
   412 													      sta NMIEN
   413 													   .endif
   414 												
   415 													.endm
   416
   417
   418 												;--------------------------------------------------------------------------------
   419 												; DisableNormalInterrupts
   420 												;--------------------------------------------------------------------------------
   421
   422 													.macro DisableNormalInterrupts
   423 													   .if :0 <> 0
   424 													      .error "DisableNormalInterrupts error"
   425 												
   426 													   .else
   427 													      sei
   428 													      lda #0
   429 													      sta IRQEN
   430 													      sta NMIEN
   431 													   .endif
   432 												
   433 													.endm
   434
   435
   436 												;--------------------------------------------------------------------------------
   437 												; ClearSystem
   438 												;--------------------------------------------------------------------------------
   439
   440 													.macro ClearSystem
   441 													   .if :0 <> 0
   442 													      .error "ClearSystem error"
   443 												
   444 													   .else
   445 													      clc
   446 													      cld
   447 												
   448 													      sei
   449 												
   450 													      lda #0
   451 													      sta IRQEN	; clear interrupts and screen
   452 													      sta NMIEN
   453 												
   454 													      sta DMACTL
   455 													      sta COLBK
   456 												
   457 													      sta GRACTL	; clear P/M
   458 													      sta GRAFP0
   459 													      sta GRAFP1
   460 													      sta GRAFP2
   461 													      sta GRAFP3
   462 													      sta GRAFM
   463 												
   464 													      sta HPOSP0
   465 													      sta HPOSP1
   466 													      sta HPOSP2
   467 													      sta HPOSP3
   468 													      sta HPOSM0
   469 													      sta HPOSM1
   470 													      sta HPOSM2
   471 													      sta HPOSM3
   472 												
   473 													      sta PRIOR	; clear GTIA also
   474 												
   475 													      sta AUDCTL	; clear sound
   476 													      sta AUDC1
   477 													      sta AUDC2
   478 													      sta AUDC3
   479 													      sta AUDC4
   480 												
   481 													      lda #3
   482 													      sta SKCTL
   483 													   .endif
   484 												
   485 													.endm
   486
   487
   488 												;--------------------------------------------------------------------------------
   489 												; SetDisplayListAddress [word]
   490 												; (use when the screen is not being displayed!)
   491 												; (remember to not cross the 1K limit..)
   492 												;--------------------------------------------------------------------------------
   493
   494 													.macro SetDisplayListAddress
   495 													   .if :0 <> 1
   496 													      .error "SetDisplayListAddress error"
   497 												
   498 													   .else
   499 													      SetVector DLISTL, :1
   500 												
   501 												;	      lda #<:1
   502 												;	      sta DLISTL
   503 												;	      lda #>:1
   504 												;	      sta DLISTH
   505 													   .endif
   506 												
   507 													.endm
   508
   509
   510 												;--------------------------------------------------------------------------------
   511 												; SetFontAddress [word]
   512 												; (remember that this transform to a page a number)
   513 												;--------------------------------------------------------------------------------
   514
   515 													.macro SetFontAddress
   516 													   .if :0 <> 1
   517 													      .error "SetFontAddress error"
   518 												
   519 													   .else
   520 													      lda #>:1
   521 													      sta CHBASE
   522 													   .endif
   523 												
   524 													.endm
   525
   526
   527 												;--------------------------------------------------------------------------------
   528 												; SetPMBaseAddress [word]
   529 												; (remember that this transform to a page a number)
   530 												;--------------------------------------------------------------------------------
   531
   532 													.macro SetPMBaseAddress
   533 													   .if :0 <> 1
   534 													      .error "SetPMBaseAddress error"
   535 												
   536 													   .else
   537 													      lda #>:1
   538 													      sta PMBASE
   539 													   .endif
   540 												
   541 													.endm
   542
   543
   544 												;--------------------------------------------------------------------------------
   545 												; SetMemory [address] [bytes] [value]
   546 												;--------------------------------------------------------------------------------
   547
   548 												; warning, using some page zero memory
   549
   550 													.macro SetMemory
   551 												
   552 												setMemPtr	= 254
   553 												setMemCounter	= 252
   554 												
   555 													   .if :0 <> 3
   556 													      .error "SetMemory error"
   557 												
   558 													   .else
   559 													      ldy #0
   560 												
   561 													      lda #<:1
   562 													      sta setMemPtr
   563 													      lda #>:1
   564 													      sta setMemPtr+1
   565 												
   566 													      .if :2 < 256
   567 													         lda #:3
   568 												setMemLoop1
   569 													         sta (setMemPtr),y
   570 													         iny
   571 													         cpy #:2
   572 													         bne setMemLoop1
   573 												
   574 													      .else
   575 													         lda #<:2
   576 													         sta setMemCounter
   577 													         lda #>:2
   578 													         sta setMemCounter+1
   579 												
   580 												setMemLoop2
   581 													         lda #:3
   582 													         sta (setMemPtr),y
   583 													         iny
   584 													         bne setMemB1
   585 													         inc setMemPtr+1
   586 												setMemB1
   587 													         lda setMemCounter
   588 													         bne setMemB2
   589 													         dec setMemCounter+1
   590 												setMemB2
   591 													         dec setMemCounter
   592 												
   593 													         lda setMemCounter
   594 													         ora setMemCounter+1
   595 													         bne setMemLoop2
   596 													      .endif
   597 													   .endif
   598 												
   599 													.endm
   600
   601
   602 												;--------------------------------------------------------------------------------
   603 												; SetMemoryRandom [address] [bytes]
   604 												;--------------------------------------------------------------------------------
   605
   606 												; warning, using some page zero memory
   607
   608 													.macro SetMemoryRandom
   609 												
   610 												setMemRPtr	= 254
   611 												setMemRCounter	= 252
   612 												
   613 													   .if :0 <> 2
   614 													      .error "SetMemoryRandom error"
   615 												
   616 													   .else
   617 													      ldy #0
   618 												
   619 													      lda #<:1
   620 													      sta setMemRPtr
   621 													      lda #>:1
   622 													      sta setMemRPtr+1
   623 												
   624 													      .if :2 < 256
   625 												setMemRLoop1
   626 													         lda RANDOM
   627 													         sta (setMemRPtr),y
   628 													         iny
   629 													         cpy #:2
   630 													         bne setMemRLoop1
   631 												
   632 													      .else
   633 													         lda #<:2
   634 													         sta setMemRCounter
   635 													         lda #>:2
   636 													         sta setMemRCounter+1
   637 												
   638 												setMemRLoop2
   639 													         lda RANDOM
   640 													         sta (setMemRPtr),y
   641 													         iny
   642 													         bne setMemRB1
   643 													         inc setMemRPtr+1
   644 												setMemRB1
   645 													         lda setMemRCounter
   646 													         bne setMemRB2
   647 													         dec setMemRCounter+1
   648 												setMemRB2
   649 													         dec setMemRCounter
   650 												
   651 													         lda setMemRCounter
   652 													         ora setMemRCounter+1
   653 													         bne setMemRLoop2
   654 													      .endif
   655 													   .endif
   656 												
   657 													.endm
   658
   659
   660 												;--------------------------------------------------------------------------------
   661 												; ClampMemory [address] [bytes] [min value] [max value]
   662 												;--------------------------------------------------------------------------------
   663
   664 												; warning, using some page zero memory
   665
   666 													.macro ClampMemory
   667 												
   668 												clampMemPtr	= 254
   669 												clampMemCounter	= 252
   670 												
   671 													   .if :0 <> 4
   672 													      .error "ClampMemory error"
   673 												
   674 													   .else
   675 													      ldy #0
   676 												
   677 													      lda #<:1
   678 													      sta clampMemPtr
   679 													      lda #>:1
   680 													      sta clampMemPtr+1
   681 												
   682 													      .if :2 < 256
   683 												clampMemLoop1
   684 													         lda (clampMemPtr),y
   685 													         cmp #:3
   686 													         bcs clampMemB3		; if >= min then continue
   687 													         lda #:3
   688 													         jmp clampMemB4
   689 												clampMemB3
   690 													         cmp #:4
   691 													         bcc clampMemB4		; if < max then continue
   692 												;	         beq clampMemB4		; if = max then continue
   693 													         lda #:4
   694 												clampMemB4
   695 													         sta (clampMemPtr),y
   696 												
   697 													         iny
   698 													         cpy #:2
   699 													         bne clampMemLoop1
   700 												
   701 													      .else
   702 													         lda #<:2
   703 													         sta clampMemCounter
   704 													         lda #>:2
   705 													         sta clampMemCounter+1
   706 												
   707 												clampMemLoop2
   708 													         lda (clampMemPtr),y
   709 													         cmp #:3
   710 													         bcs clampMemB5		; if >= min then continue
   711 													         lda #:3
   712 													         jmp clampMemB6
   713 												clampMemB5
   714 													         cmp #:4
   715 													         bcc clampMemB6		; if < max then continue
   716 												;	         beq clampMemB6		; if = max then continue
   717 													         lda #:4
   718 												clampMemB6
   719 													         sta (clampMemPtr),y
   720 												
   721 													         iny
   722 													         bne clampMemB1
   723 													         inc clampMemPtr+1
   724 												clampMemB1
   725 													         lda clampMemCounter
   726 													         bne clampMemB2
   727 													         dec clampMemCounter+1
   728 												clampMemB2
   729 													         dec clampMemCounter
   730 												
   731 													         lda clampMemCounter
   732 													         ora clampMemCounter+1
   733 													         bne clampMemLoop2
   734 													      .endif
   735 													   .endif
   736 												
   737 													.endm
   738
   739
   740 												;--------------------------------------------------------------------------------
   741 												; AndMemory [address] [bytes] [value]
   742 												;--------------------------------------------------------------------------------
   743
   744 												; warning, using some page zero memory
   745
   746 													.macro AndMemory
   747 												
   748 												andMemPtr	= 254
   749 												andMemCounter	= 252
   750 												
   751 													   .if :0 <> 3
   752 													      .error "AndMemory error"
   753 												
   754 													   .else
   755 													      ldy #0
   756 												
   757 													      lda #<:1
   758 													      sta andMemPtr
   759 													      lda #>:1
   760 													      sta andMemPtr+1
   761 												
   762 													      .if :2 < 256
   763 												andMemLoop1
   764 													         lda (andMemPtr),y
   765 													         and #:3
   766 													         sta (andMemPtr),y
   767 													         iny
   768 													         cpy #:2
   769 													         bne andMemLoop1
   770 												
   771 													      .else
   772 													         lda #<:2
   773 													         sta andMemCounter
   774 													         lda #>:2
   775 													         sta andMemCounter+1
   776 												
   777 												andMemLoop2
   778 													         lda (andMemPtr),y
   779 													         and #:3
   780 													         sta (andMemPtr),y
   781 													         iny
   782 													         bne andMemB1
   783 													         inc andMemPtr+1
   784 												andMemB1
   785 													         lda andMemCounter
   786 													         bne andMemB2
   787 													         dec andMemCounter+1
   788 												andMemB2
   789 													         dec andMemCounter
   790 												
   791 													         lda andMemCounter
   792 													         ora andMemCounter+1
   793 													         bne andMemLoop2
   794 													      .endif
   795 													   .endif
   796 												
   797 													.endm
   798
   799
   800 												;--------------------------------------------------------------------------------
   801 												; CopyMemory [source address] [dest address] [bytes]
   802 												;--------------------------------------------------------------------------------
   803
   804 												; warning, using some page zero memory
   805
   806 													.macro CopyMemory
   807 												
   808 												copyMemPtr1	= 254
   809 												copyMemPtr2	= 252
   810 												copyMemCounter	= 250
   811 												
   812 													   .if :0 <> 3
   813 													      .error "CopyMemory error"
   814 												
   815 													   .else
   816 													      ldy #0
   817 												
   818 													      .if :3 <= 256
   819 												copyMemLoop1
   820 														lda :1,y
   821 														sta :2,y
   822 														iny
   823 														.if :3 < 256
   824 															cpy #<:3
   825 														.endif
   826 														bne copyMemLoop1
   827 												
   828 													      .else
   829 													        lda #<:1
   830 													        sta copyMemPtr1
   831 													        lda #>:1
   832 													        sta copyMemPtr1+1
   833 														lda #<:2
   834 														sta copyMemPtr2
   835 														lda #>:2
   836 														sta copyMemPtr2+1
   837 														lda #<:3
   838 														sta copyMemCounter
   839 														lda #>:3
   840 														sta copyMemCounter+1
   841 												
   842 												copyMemLoop2
   843 														lda (copyMemPtr1),y
   844 														sta (copyMemPtr2),y
   845 														iny
   846 														bne copyMemB1
   847 														inc copyMemPtr1+1
   848 														inc copyMemPtr2+1
   849 												copyMemB1
   850 														lda copyMemCounter
   851 														bne copyMemB2
   852 														dec copyMemCounter+1
   853 												copyMemB2
   854 														dec copyMemCounter
   855 												
   856 														lda copyMemCounter
   857 														ora copyMemCounter+1
   858 														bne copyMemLoop2
   859 													      .endif
   860 													   .endif
   861 												
   862 													.endm
   863
   864
   865 												;--------------------------------------------------------------------------------
   866 												; CreateDisplayList [DL address] [DL mode] [memory address]
   867 												; (remember to not cross the 1K limit.. and the 4K limit)
   868 												;--------------------------------------------------------------------------------
   869
   870 												; 	.macro CreateDisplayList
   871 												; 	   .if :0 <> 3
   872 												; 	      .error "CreateDisplayList error"
   873 												; 
   874 												; 	   .else
   875 												; 
   876 												; 	   .endif
   877 												; 
   878 												; 	.endm
   879
   880
   881 												;--------------------------------------------------------------------------------
   882 												;
   883 												;--------------------------------------------------------------------------------
   884
   885
   886
     3 												    ORG $700
     4 FFFF> 0700-1BC3> 4D 03 00 07 E0 07 4C 14 07 03 FF 01 E9 1B 02 04 00 FD 15 0B AC 12 07 AD +       INS 'mydos.dat'
     5 1BC0												MYDOS
     6 1BC0 20 E0 07										    JSR $07E0
     7 1BC3 60											    RTS
     8 02E2-02E3> C0 1B										    INI MYDOS
     9 1BC4												    ORG $2000
    10 2000												    ICL 'paginas.asm'
Source: paginas.asm
     1 = 0047											GENDAT = $47
     2 2000												LOAD
     3 = 026F											LARGOLOADER     		= [.LEN LOADER]
     4 = 2031											TITULOLOGO  			= [[LOADER.MENSAJELOAD - LOADER] + LOAD]
     5 = 21FD											TITULOPRINCIPALLOADER  	= [[LOADER.TITULOPRINCIPALLOADER - LOADER] + LOAD]
     6 = 21E9											TITULOOPCIONALLOADER  	= [[LOADER.TITULOOPCIONALLOADER - LOADER] + LOAD]
     7
     8 2000												.PROC LOADER,$6FE
     9 06FE 55 55											    .BY $55,$55
    10 0700 A2 00												LDX #$00
    11 0702 8E 44 02											STX COLDST
    12 0705 E8												INX
    13 0706 86 09												STX $09
    14 0708 4C 67 09											JMP STARTLOAD
    15 070B												NBYTESLOADER
    16 070B FC												.BY 252
    17 070C												FLAGYLOADER
    18 070C 00												.BY 0
    19 070D												FINISHLOADER
    20 070D 00 00												.BY 0,0
    21 070F												CONTADORLOADER
    22 070F 00												.BY 0
    23 0710												DLISTLOADER
    24 0710 70 70 70 46											.BY $70,$70,$70,$46
    25 0714 2F 07											    .WO MENSAJELOAD
    26 0716 70 02 70										    .BY $70,$02,$70
    27 0719 02 02 02 02 02 02 02 02 02								:9    .BY $02
    28 0722 70											    .BY $70
    29 0723 06 70 06 70 06 70 02 70 06								    .BY $06,$70,$06,$70,$06,$70,$02,$70,$06
    30 072C 41											    .BY $41
    31 072D 10 07											    .WO DLISTLOADER
    32 072F												MENSAJELOAD
    33 072F 0D 0D 21 23 21 00 36 21 00 25 2C 00 34 29 34 35 2C 2F 0D 0D				    .SB "--ACA VA EL TITULO--"
    34 0743 00 30 32 2F 27 32 21 2D 21 33 00 30 21 32 21 00 23 2F 2D 30 35 34 21 24 2F 32 25 33 +       .SB " PROGRAMAS PARA COMPUTADORES ATARI 2024 "
    35 076B 51 52 52 52 52 52 52 52 52 52 52 52 52 52 52 52 52 52 52 52 52 52 52 52 52 52 52 52 +       .SB +32,"QRRRRRRRRRRRRRRRRRRRRRRRRRRRRRRRRRRRRRRE"
    36 0793												BANQUEOLOAD
    37 0793 7C 0A 0A 0A 0A 0A 0A 0A 0A 0A 0A 0A 0A 0A 0A 0A 0A 0A 0A 0A 0A 0A 0A 0A 0A 0A 0A 0A +       .SB "|**************************************|"  ;38
    38 07BB 7C 0A 0A 0A 0A 0A 0A 0A 0A 0A 0A 0A 0A 0A 0A 0A 0A 0A 0A 0A 0A 0A 0A 0A 0A 0A 0A 0A +       .SB "|**************************************|"  ;76
    39 07E3 7C 0A 0A 0A 0A 0A 0A 0A 0A 0A 0A 0A 0A 0A 0A 0A 0A 0A 0A 0A 0A 0A 0A 0A 0A 0A 0A 0A +       .SB "|**************************************|"  ;114
    40 080B 7C 0A 0A 0A 0A 0A 0A 0A 0A 0A 0A 0A 0A 0A 0A 0A 0A 0A 0A 0A 0A 0A 0A 0A 0A 0A 0A 0A +       .SB "|**************************************|"  ;152
    41 0833 7C 0A 0A 0A 0A 0A 0A 0A 0A 0A 0A 0A 0A 0A 0A 0A 0A 0A 0A 0A 0A 0A 0A 0A 0A 0A 0A 0A +       .SB "|**************************************|"  ;190
    42 085B 7C 0A 0A 0A 0A 0A 0A 0A 0A 0A 0A 0A 0A 0A 0A 0A 0A 0A 0A 0A 0A 0A 0A 0A 0A 0A 0A 0A +       .SB "|**************************************|"  ;228
    43 0883 7C 0A 0A 0A 0A 0A 0A 0A 0A 0A 0A 0A 0A 0A 0A 0A 0A 0A 0A 0A 0A 0A 0A 0A 0A 0A 0A 0A +       .SB "|**************************************|"  ;266
    44 08AB 5A 52 52 52 52 52 52 52 52 52 52 52 52 52 52 52 52 52 52 52 52 52 52 52 52 52 52 52 +       .SB +32,"ZRRRRRRRRRRRRRRRRRRRRRRRRRRRRRRRRRRRRRRC"
    45 08D3 80 80 80 80 80 80 F0 F2 E5 F3 E5 EE F4 E1 80 80 80 80 80 80				    .SB +128,"      presenta      "
    46 08E7												TITULOOPCIONALLOADER
    47 08E7 0D 0D 21 23 21 0D 36 21 0D 25 2C 0D 34 29 34 35 2C 2F 0D 0D				    .SB "--ACA-VA-EL-TITULO--"
    48 08FB												TITULOPRINCIPALLOADER
    49 08FB 0D 0D 21 23 21 0D 36 21 0D 25 2C 0D 34 29 34 35 2C 2F 0D 0D				    .SB "--ACA-VA-EL-TITULO--"
    50 090F 00 00 34 65 00 66 61 6C 74 61 6E 00							    .SB "  Te faltan "
    51 091B												BYTESRESTANTESLOADER
    52 091B 0A 0A 0A 0A 00 62 6C 6F 71 75 65 73 00 70 61 72 61 00 74 65 72 6D 69 6E 61 72 00 00		.SB "**** bloques para terminar  "
    53 0937 00 00 73 69 73 74 65 6D 61 73 00							    .SB "  sistemas "
    54 0942 E4 EF E7 E4 E1 F2 EB									    .SB +128,"dogdark"
    55 0949 00 00											    .SB "  "
    56 094B												CDLLOADER
    57 094B A2 10												LDX # <DLISTLOADER
    58 094D A0 07												LDY # >DLISTLOADER
    59 094F 8E 30 02											STX SDLSTL
    60 0952 8E 02 D4											STX DLISTL
    61 0955 8C 31 02											STY SDLSTL+1
    62 0958 8C 03 D4											STY DLISTL+1
    63 095B A9 60												LDA #$60	;$02C8
    64 095D 8D C6 02											STA COLOR2
    65 0960 8D C8 02											STA COLOR4
    66 0963 8D 18 D0											STA COLPF2
    67 0966 60												RTS
    68 0967												STARTLOAD
    69 0967 20 4B 09											JSR CDLLOADER
    70 096A 4C 6A 09											JMP *	
    71 												.ENDP
    72
    73
    74
    75
    76 												;*******************
    77 												;pagina 7
    78 												;*******************
    79 226F												PAG7
    80
    81 = 017F											PAGINA7LARGO            = [.LEN PAGINA7]
    82 = 0052											TOTALENCRIPTADOPAGINA7  = [PAGINA7.PANTALLAPAGINA7 - PAGINA7.STACFPAGINA7]
    83 = 22C1											ENCRIPTADOPAGINA7       = [[PAGINA7.PANTALLAPAGINA7 - PAGINA7.STACFPAGINA7] + PAG7]
    84 = 239C											LOGOPAGINA7             = [[PAGINA7.LOGOPAGINA7 - PAGINA7] + PAG7]
    85 = 23B0											TITULOPRINCIPALPAGINA7  = [[PAGINA7.TITULOPRINCIPALPAGINA7 - PAGINA7] + PAG7]
    86 = 2372											STACENCRIPT 			= [[PAGINA7.STACFPAGINA7 - PAGINA7] + PAG7]
    87
    88 226F												.PROC PAGINA7,$2000
    89 = B000											KEMBUFFER =$B000
    90 2000												INICIOPAG7 
    91 2000 00												.BY $00
    92 2001 03												.BY [PAGINA7LARGO+127]/128
    93 2002 00 20 55 21											.WO INICIOPAG7,PANTALLAPAGINA7
    94 2006 20 2F 20											JSR KEMPAGINA7
    95 2009 20 64 21											JSR DESENCRIPTOPAGINA7
    96 200C AE 30 02											LDX SDLSTL
    97 200F AC 31 02											LDY SDLSTL+1
    98 2012 8E FC BF											STX $BFFC
    99 2015 8C FD BF											STY $BFFD
   100 2018 A2 18												LDX # <DLISTPAGINA7
   101 201A A0 21												LDY # >DLISTPAGINA7
   102 201C A9 00												LDA #$00
   103 201E 8E 30 02											STX SDLSTL
   104 2021 8E 02 D4											STX DLISTL
   105 2024 8C 31 02											STY SDLSTL+1
   106 2027 8C 03 D4											STY DLISTL+1
   107 202A 85 41												STA $41
   108 202C 4C 00 04											JMP $400
   109 202F												KEMPAGINA7
   110 202F A0 00												LDY #$00
   111 2031												KEMLOOP1
   112 2031 B9 00 E0											LDA $E000,Y
   113 2034 99 00 B0											STA KEMBUFFER,Y
   114 2037 B9 00 E1											LDA $E100,Y
   115 203A 99 00 B1											STA KEMBUFFER+$100,Y
   116 203D B9 00 E2											LDA $E200,Y
   117 2040 99 00 B2											STA KEMBUFFER+$200,Y
   118 2043 B9 00 E3											LDA $E300,Y
   119 2046 99 00 B3											STA KEMBUFFER+$300,Y
   120 2049 C8												INY
   121 204A D0 E5												BNE KEMLOOP1
   122 204C A9 B0												LDA #>KEMBUFFER
   123 204E 8D F4 02										    STA CHBAS
   124 2051 8D 09 D4											STA CHBASE
   125 2054 A2 C0												LDX #$C0
   126 2056 78												SEI
   127 2057 8C 0E D4											STY $D40E
   128 205A 86 CC												STX $CC
   129 205C 84 CB												STY $CB
   130 205E												LOOPPAGINA7
   131 205E B1 CB												LDA ($CB),Y
   132 2060 CE 01 D3											DEC PORTB
   133 2063 91 CB												STA ($CB),Y
   134 2065 EE 01 D3											INC PORTB
   135 2068 C8												INY
   136 2069 D0 F3												BNE LOOPPAGINA7
   137 206B E6 CC												INC $CC
   138 206D F0 0C												BEQ @EXITPAGINA7
   139 206F A5 CC												LDA $CC
   140 2071 C9 D0												CMP #$D0
   141 2073 D0 E9												BNE LOOPPAGINA7
   142 2075 A9 D8												LDA #$D8
   143 2077 85 CC												STA $CC
   144 2079 D0 E3												BNE LOOPPAGINA7
   145 207B												@EXITPAGINA7
   146 207B A9 E0												LDA #$e0
   147 207D 8D F4 02										    STA CHBAS
   148 2080 8D 09 D4											STA CHBASE
   149 2083 98												TYA	//y está en cero, según el código de arriba
   150 2084												KEMLOOP2
   151 2084 99 00 B0											STA KEMBUFFER,Y
   152 2087 99 00 B1											STA KEMBUFFER+$100,Y
   153 208A 99 00 B2											STA KEMBUFFER+$200,Y
   154 208D 99 00 B3											STA KEMBUFFER+$300,Y
   155 2090 C8												INY
   156 2091 D0 F1												BNE KEMLOOP2
   157 2093 CE 01 D3											DEC PORTB
   158 2096 A2 01												LDX #$01
   159 2098 A0 4C												LDY #$4C
   160 209A A9 13												LDA #$13
   161 209C 8E 17 EE											STX $EE17
   162 209F 8C 8F ED											STY $ED8F
   163 20A2 8D 67 ED											STA $ED67
   164 20A5 A2 80												LDX #$80
   165 20A7 A0 03												LDY #$03
   166 20A9 8E A3 EB											STX $EBA3
   167 20AC 8C A8 EB											STY $EBA8
   168 20AF A0 04												LDY #$04
   169 20B1 A9 EA												LDA #$EA
   170 20B3												NOPERPAGINA7
   171 20B3 99 85 ED											STA $ED85,Y
   172 20B6 88												DEY
   173 20B7 10 FA												BPL NOPERPAGINA7
   174 20B9 A0 37												LDY #STACFPAGINA7-STACIPAGINA7
   175 20BB												MOVEPAGINA7
   176 20BB B9 CC 20											LDA STACIPAGINA7,Y
   177 20BE 99 EF EC											STA $ECEF,Y
   178 20C1 88												DEY
   179 20C2 10 F7												BPL MOVEPAGINA7
   180 20C4 A9 40												LDA #$40
   181 20C6 8D 0E D4											STA NMIEN
   182 20C9 58												CLI
   183 20CA 18												CLC
   184 20CB 60												RTS
   185 20CC												STACIPAGINA7
   186 20CC A9 7D												LDA #$7D
   187 20CE A6 62												LDX $62
   188 20D0 F0 02												BEQ CC0PAGINA7
   189 20D2 A9 64												LDA #$64
   190 20D4												CC0PAGINA7
   191 20D4 18												CLC
   192 20D5 7D 19 EE											ADC $EE19,X
   193 20D8 88												DEY
   194 20D9 10 F9												BPL CC0PAGINA7
   195 20DB 18												CLC
   196 20DC 6D 12 03											ADC $0312
   197 20DF 38												SEC
   198 20E0 E9 64												SBC #$64
   199 20E2 90 1C												BCC CC3PAGINA7
   200 20E4 8D 12 03											STA $0312
   201 20E7 A0 02												LDY #$02
   202 20E9 A2 06												LDX #$06
   203 20EB A9 4F												LDA #$4F
   204 20ED												CC2PAGINA7
   205 20ED 6D 12 03											ADC $0312
   206 20F0 90 02												BCC CC1PAGINA7
   207 20F2 C8												INY
   208 20F3 18												CLC
   209 20F4												CC1PAGINA7
   210 20F4 CA												DEX
   211 20F5 D0 F6												BNE CC2PAGINA7
   212 20F7 8D EE 02											STA $02EE
   213 20FA 8C EF 02											STY $02EF
   214 20FD 4C 96 ED											JMP $ED96
   215 2100												CC3PAGINA7
   216 2100 4C 3D ED											JMP $ED3D
   217 2103												STACFPAGINA7
   218 2103 44 6F 67 64 61 72 6B 20 53 6F 66 74 77 61 72 65 20 32 30 32 30					.BY "Dogdark Software 2020"
   219 2118												DLISTPAGINA7
   220 2118 70 70 70 70 70 70 70 70										.BY $70,$70,$70,$70,$70,$70,$70,$70
   221 2120 70 70 70 70 70 46										.BY $70,$70,$70,$70,$70,$46
   222 2126 2D 21												.WO LOGOPAGINA7
   223 2128 70 06 41											.BY $70,$06,$41
   224 212B 18 21												.WO DLISTPAGINA7
   225 212D												LOGOPAGINA7
   226 212D 00 00 00 00 00 00 00 00 00 00 00 00 00 00 00 00 00 00 00 00				:20	.SB " "
   227 2141												TITULOPRINCIPALPAGINA7
   228 2141 00 00 00 00 00 00 00 00 00 00 00 00 00 00 00 00 00 00 00 00				:20	.SB " "
   229 2155												PANTALLAPAGINA7
   230 2155 AE FC BF											LDX $BFFC
   231 2158 AC FD BF											LDY $BFFD
   232 215B 8E 30 02											STX SDLSTL
   233 215E 8C 31 02											STY SDLSTL+1
   234 2161 4C 00 07											JMP $700
   235 2164												DESENCRIPTOPAGINA7
   236 2164 A2 52											    LDX #TOTALENCRIPTADOPAGINA7
   237 2166												DESENCRIPTOPAGINA701
   238 2166 38												SEC
   239 2167 BD 03 21										    LDA STACFPAGINA7,X
   240 216A E9 12											    SBC #$12 ;$FD
   241 216C 9D 03 21										    STA STACFPAGINA7,X
   242 216F CA											    DEX
   243 2170 10 F4											    BPL DESENCRIPTOPAGINA701
   244 2172 60												RTS
   245 												;LOOPCITO
   246 													;JMP LOOPCITO
   247 2173 24 2F 27 24 21 32 2B 00 12 10 12 15								.SB "DOGDARK 2025"
   248 217F												FINPAGINA7
   249 												.ENDP
   250
   251 23EE												PAG4
   252
   253 = 0000											PAGINA4LARGO    = [.LEN PAG4]
   254
   255 23EE												.PROC PAGINA4,$03FD
   256 03FD 55 55 FE											.BYTE $55,$55,$FE
   257 0400 AD 01 D3											LDA PORTB
   258 0403 09 02												ORA #$02
   259 0405 8D 01 D3											STA PORTB
   260 0408 AD 65 04											LDA FINPAGINA4
   261 040B 85 47												STA GENDAT
   262 040D A2 0B												LDX #$0B
   263 040F												MOVEPAGINA4
   264 040F BD 59 04											LDA TABLASIOVPAGINA4,X
   265 0412 9D 00 03											STA $0300,X
   266 0415 CA												DEX
   267 0416 10 F7												BPL MOVEPAGINA4
   268 0418 20 59 E4											JSR SIOV
   269 041B 30 02												BMI ERRORPAGINA4
   270 041D 18												CLC
   271 041E 60												RTS
   272 041F												ERRORPAGINA4
   273 041F AE FC BF											LDX $BFFC
   274 0422 AC FD BF											LDY $BFFD
   275 0425 8E 30 02											STX $0230
   276 0428 8C 31 02											STY $0231
   277 042B A0 00												LDY #$00
   278 042D												LERPAGINA4
   279 042D B9 3E 04											LDA TABLAPAGINA4,Y
   280 0430 91 58												STA ($58),Y
   281 0432 C8												INY
   282 0433 C0 1B												CPY #27
   283 0435 D0 F6												BNE LERPAGINA4
   284 0437 A9 3C												LDA #$3C
   285 0439 8D 02 D3											STA PACTL
   286 043C												LOOPPAGINA4
   287 043C D0 FE												BNE LOOPPAGINA4
   288 043E												TABLAPAGINA4
   289 043E 25 32 32 2F 32 00 01 01 01 00 23 21 32 27 35 25 00 2E 35 25 36 21 2D 25 2E 34 25		.SB "ERROR !!! CARGUE NUEVAMENTE"
   290 0459												TABLASIOVPAGINA4
   291 0459 60 00 52 40											.BY $60,$00,$52,$40
   292 045D FE 06												.WO $06FE
   293 045F 23 00												.BY $23,$00
   294 0461 6F 02												.WO LARGOLOADER	;l_load
   295 0463 00 80												.BY $00,$80
   296 0465												FINPAGINA4
   297 												.ENDP
    11 2456												    ICL 'funciones.asm'
Source: funciones.asm
     1 												;FUNCIONES DEL SISTEMA
     2 												;
     3 												; COPIA LA ROM A LA RAM
     4 												;
     5 = B000											KEMBUFFERROMRAM =$B000
     6 2456												ROMRAM
     7 2456 A0 00												LDY #$00
     8 2458												KEMLOOP1ROMRAM
     9 2458 B9 00 E0											LDA $E000,Y
    10 245B 99 00 B0											STA KEMBUFFERROMRAM,Y
    11 245E B9 00 E1											LDA $E100,Y
    12 2461 99 00 B1											STA KEMBUFFERROMRAM+$100,Y
    13 2464 B9 00 E2											LDA $E200,Y
    14 2467 99 00 B2											STA KEMBUFFERROMRAM+$200,Y
    15 246A B9 00 E3											LDA $E300,Y
    16 246D 99 00 B3											STA KEMBUFFERROMRAM+$300,Y
    17 2470 C8												INY
    18 2471 D0 E5												BNE KEMLOOP1ROMRAM
    19 2473 A9 B0												LDA #>KEMBUFFERROMRAM
    20 2475 8D F4 02											STA CHBAS
    21 2478 8D 09 D4											STA CHBASE
    22 247B A2 C0												LDX #$C0
    23 247D 78												SEI
    24 247E 8C 0E D4											STY $D40E
    25 2481 86 CC												STX $CC
    26 2483 84 CB												STY $CB
    27 2485												LOOPROMRAM
    28 2485 B1 CB												LDA ($CB),Y
    29 2487 CE 01 D3											DEC $D301
    30 248A 91 CB												STA ($CB),Y
    31 248C EE 01 D3											INC $D301
    32 248F C8												INY
    33 2490 D0 F3												BNE LOOPROMRAM
    34 2492 E6 CC												INC $CC
    35 2494 F0 0C												BEQ @EXITROMRAM
    36 2496 A5 CC												LDA $CC
    37 2498 C9 D0												CMP #$D0
    38 249A D0 E9												BNE LOOPROMRAM
    39 249C A9 D8												LDA #$D8
    40 249E 85 CC												STA $CC
    41 24A0 D0 E3												BNE LOOPROMRAM
    42 24A2												@EXITROMRAM
    43 24A2 A9 E0												LDA #$E0
    44 24A4 8D F4 02											STA CHBAS
    45 24A7 8D 09 D4											STA CHBASE
    46 24AA 98												TYA	//y está en cero, según el código de arriba
    47 24AB												KEMLOOP2ROMRAM
    48 24AB 99 00 B0											STA KEMBUFFERROMRAM,Y
    49 24AE 99 00 B1											STA KEMBUFFERROMRAM+$100,Y
    50 24B1 99 00 B2											STA KEMBUFFERROMRAM+$200,Y
    51 24B4 99 00 B3											STA KEMBUFFERROMRAM+$300,Y
    52 24B7 C8												INY
    53 24B8 D0 F1												BNE KEMLOOP2ROMRAM
    54 24BA CE 01 D3											DEC $D301
    55 24BD A2 01												LDX #$01
    56 24BF A0 4C												LDY #$4C
    57 24C1 A9 13												LDA #$13
    58 24C3 8E 17 EE											STX $EE17
    59 24C6 8C 8F ED											STY $ED8F
    60 24C9 8D 67 ED											STA $ED67
    61 24CC A2 80												LDX #$80
    62 24CE A0 03												LDY #$03
    63 24D0 8E A3 EB											STX $EBA3
    64 24D3 8C A8 EB											STY $EBA8
    65 24D6 A0 04												LDY #$04
    66 24D8 A9 EA												LDA #$EA
    67 24DA												NOPROMRAM
    68 24DA 99 85 ED											STA $ED85,Y
    69 24DD 88												DEY
    70 24DE 10 FA												BPL NOPROMRAM
    71 24E0 A0 37												LDY #STACFROMRAM-STACIROMRAM
    72 24E2												MOVEROMRAM
    73 24E2 B9 F3 24											LDA STACIROMRAM,Y
    74 24E5 99 EF EC											STA $ECEF,Y
    75 24E8 88												DEY
    76 24E9 10 F7												BPL MOVEROMRAM
    77 24EB A9 40												LDA #$40
    78 24ED 8D 0E D4											STA NMIEN
    79 24F0 58												CLI
    80 24F1 18												CLC
    81 24F2 60												RTS
    82 24F3												STACIROMRAM
    83 24F3 A9 7D												LDA #$7D
    84 24F5 A6 62												LDX $62
    85 24F7 F0 02												BEQ CC0ROMRAM
    86 24F9 A9 64												LDA #$64
    87 24FB												CC0ROMRAM
    88 24FB 18												CLC
    89 24FC 7D 19 EE											ADC $EE19,X
    90 24FF 88												DEY
    91 2500 10 F9												BPL CC0ROMRAM
    92 2502 18												CLC
    93 2503 6D 12 03											ADC $0312
    94 2506 38												SEC
    95 2507 E9 64												SBC #$64
    96 2509 90 1C												BCC CC3ROMRAM
    97 250B 8D 12 03											STA $0312
    98 250E A0 02												LDY #$02
    99 2510 A2 06												LDX #$06
   100 2512 A9 4F												LDA #$4F
   101 2514												CC2ROMRAM
   102 2514 6D 12 03											ADC $0312
   103 2517 90 02												BCC CC1ROMRAM
   104 2519 C8												INY
   105 251A 18												CLC
   106 251B												CC1ROMRAM
   107 251B CA												DEX
   108 251C D0 F6												BNE CC2ROMRAM
   109 251E 8D EE 02											STA $02EE
   110 2521 8C EF 02											STY $02EF
   111 2524 4C 96 ED											JMP $ED96
   112 2527												CC3ROMRAM
   113 2527 4C 3D ED											JMP $ED3D
   114 252A												STACFROMRAM
   115
   116
   117 												;MEMORIA EXPANSIVA
   118 = 0600											TABMEMBANKS = $600
   119 252A												BANKOS
   120 252A 00											    .BY $00
   121 252B												RY
   122 252B 00 00 00										    .BY $00,$00,$00
   123 252E												LEN
   124 252E 00 00 00										    .BY $00,$00,$00
   125 = 00CB											PCRSR   = $CB
   126 												;Deteccion de memoria adicional
   127 												;El programa verifica la 
   128 												;presencia de una extension
   129 												;de memoria basandose en los 
   130 												;codigos de banco dBANK 
   131 												;permitidos y guarda los bancos
   132 												;encontrados desde la direccion
   133 												;TABMEMBANKS+1.
   134 												;El metodo de prueba excluye la 
   135 												;posibilidad de duplicar 
   136 												;cualquier banco de memoria
   137 												;adicional.
   138 												;La primera entrada en la tabla
   139 												;TABMEMBANKS es el valor 
   140 												;$FF, este es el codigo del
   141 												;banco numero 0 en la memoria
   142 												;primaria.
   143 												;La tabla con los bancos de
   144 												;memoria encontrados puede
   145 												;contener como maximo 65
   146 												;entradas.
   147 												;(para 1 MB de memoria 
   148 												;adicional).
   149 												;El numero de bancos 
   150 												;encontrados se devuelve en
   151 												;el registro del acumulador
   152 												;A.
   153 												;numero maximo de bancos de
   154 												;memoria
   155 = 0040											MAXBANKS = 64		
   156 2531												MEMORIA
   157 2531 00 00 00										    .BY $00,$00,$00
   158 2534												MEM
   159 2534 A9 00											    LDA #$00
   160 2536 8D 31 25										    STA MEMORIA
   161 2539 8D 32 25										    STA MEMORIA+1
   162 253C 8D 33 25										    STA MEMORIA+2
   163 												;byte de la memoria primaria
   164 253F AD FF 7F											LDA $7FFF	
   165 2542 8D C4 25											STA TEMP
   166 2545 A2 3F											    LDX #MAXBANKS-1
   167 2547												S1 
   168 2547 BD C5 25										    LDA DBANK,X
   169 254A 8D 01 D3										    STA PORTB
   170 254D AD FF 7F										    LDA $7FFF
   171 2550 9D 00 06										    STA TABMEMBANKS,X
   172 2553 CA											    DEX
   173 2554 10 F1											    BPL S1
   174 2556 A2 3F											    LDX #MAXBANKS-1
   175 2558												S2 
   176 2558 BD C5 25										    LDA DBANK,X
   177 255B 8D 01 D3										    STA PORTB
   178 255E 8D FF 7F										    STA $7FFF
   179 2561 CA											    DEX
   180 2562 10 F4											    BPL S2
   181 												;volvemos a la memoria basica,
   182 												;aqui debajo de $7FFF
   183 												;escribimos el valor $FF
   184 2564 A9 FF												LDA #$FF
   185 2566 8D 01 D3											STA PORTB
   186 2569 8D FF 7F											STA $7FFF
   187 256C 8D 00 06											STA TABMEMBANKS ; primera
   188 												;entrada en TABMEMBANKS = $FF
   189 												;comprobamos la presencia de
   190 												;bancos de memoria adicionales,
   191 												;guardamos los bancos detectados
   192 												;desde la direccion 
   193 												;TABMEMBANKS+1 el registro
   194 												;Y cuenta los bancos de memoria
   195 												;encontrados
   196 256F A0 00												LDY #0
   197 2571 A2 3F											    LDX #MAXBANKS-1
   198 2573												LOP	
   199 2573 BD C5 25										    LDA DBANK,X
   200 2576 8D 01 D3										    STA PORTB
   201 2579 CD FF 7F										    CMP $7FFF
   202 257C D0 07											    BNE SKP
   203 257E 99 01 06											STA TABMEMBANKS+1,Y
   204 2581 C8											    INY
   205 2582 8C 2A 25										    STY BANKOS
   206 2585												SKP
   207 2585 CA											    DEX
   208 2586 10 EB											    BPL LOP
   209 2588 A2 3F											    LDX #MAXBANKS-1
   210 258A												R3 
   211 258A BD C5 25										    LDA DBANK,X
   212 258D 8D 01 D3										    STA PORTB
   213 2590 BD 00 06										    LDA TABMEMBANKS,X
   214 2593 8D FF 7F										    STA $7FFF
   215 2596 CA											    DEX
   216 2597 10 F1											    BPL R3
   217 												;Terminamos restaurando la 
   218 												;memoria primaria.
   219 2599 A9 FF											    LDA #$FF
   220 259B 8D 01 D3										    STA PORTB
   221 												;Restauramos el contenido 
   222 259E A9 00												LDA #0		
   223 												;antiguo de la celda de memoria
   224 												;desde la direccion $7FFF en la
   225 												;memoria primaria.
   226 25A0 8D FF 7F											STA $7FFF
   227 												;en regla el numero de bancos 
   228 												;de memoria adicionales
   229 												;encontrados
   230 25A3 98												TYA		
   231 25A4 AE 2A 25										    LDX BANKOS
   232 25A7 CA											    DEX
   233 25A8												CALMEM
   234 25A8 AD 31 25										    LDA MEMORIA
   235 25AB 69 00												ADC #$00
   236 25AD 8D 31 25											STA MEMORIA
   237 25B0 AD 32 25											LDA MEMORIA+1
   238 25B3 69 40												ADC #$40
   239 25B5 8D 32 25											STA MEMORIA+1
   240 25B8 AD 33 25											LDA MEMORIA+2
   241 25BB 69 00												ADC #$00
   242 25BD 8D 33 25											STA MEMORIA+2
   243 25C0 CA												DEX
   244 25C1 10 E5											    BPL CALMEM
   245 25C3 60											    RTS
   246 												;La tabla DBANK contiene codigos
   247 												;permitidos para los bancos
   248 												;habilitados para PORTB
   249 25C4												TEMP
   250 25C4 00											    .BY $00
   251 25C5												DBANK
   252 25C5 E3 C3 A3 83 63 43 23 03										.BY $E3,$C3,$A3,$83,$63,$43,$23,$03
   253 25CD E7 C7 A7 87 67 47 27 07									    .BY $E7,$C7,$A7,$87,$67,$47,$27,$07
   254 25D5 EB CB AB 8B 6B 4B 2B 0B									    .BY $EB,$CB,$AB,$8B,$6B,$4B,$2B,$0B
   255 25DD EF CF AF 8F 6F 4F 2F 0F									    .BY $EF,$CF,$AF,$8F,$6F,$4F,$2F,$0F
   256 25E5 ED CD AD 8D 6D 4D 2D 0D									    .BY $ED,$CD,$AD,$8D,$6D,$4D,$2D,$0D
   257 25ED E9 C9 A9 89 69 49 29 09									    .BY $E9,$C9,$A9,$89,$69,$49,$29,$09
   258 25F5 E5 C5 A5 85 65 45 25 05									    .BY $E5,$C5,$A5,$85,$65,$45,$25,$05
   259 25FD E1 C1 A1 81 61 41 21 01									    .BY $E1,$C1,$A1,$81,$61,$41,$21,$01
   260
   261 												;CONVIERTE BYTES A ATASCII
   262 2605												RESATASCII
   263 2605 00 00 00 00 00 00 00 00										.BYTE $00,$00,$00,$00,$00,$00,$00,$00
   264 260D												RESBCD
   265 260D 00 00 00 00											.BYTE $00,$00,$00,$00
   266 2611												VAL	
   267 2611 00 00 00											.BYTE $00,$00,$00
   268 2614												LIMPIORES
   269 2614 A2 07												LDX #7
   270 2616 A9 00												LDA #0
   271 2618												LIMPIORES01
   272 2618 9D 05 26											STA RESATASCII,X
   273 261B CA												DEX
   274 261C 10 FA												BPL LIMPIORES01
   275 261E A2 03												LDX #3
   276 2620												LIMPIORES02
   277 2620 9D 0D 26											STA RESBCD,X
   278 2623 9D 9A 26											STA HEXATASCII,X
   279 2626 CA												DEX
   280 2627 10 F7												BPL LIMPIORES02
   281 2629 60												RTS
   282 262A												LIMPIOVAL
   283 262A A2 02												LDX #2
   284 262C A9 00												LDA #$00
   285 262E												LIMPIOVAL01
   286 262E 9D 11 26											STA VAL,X
   287 2631 CA												DEX
   288 2632 10 FA												BPL LIMPIOVAL01
   289 2634 60												RTS
   290 												; Convert an 16 bit binary value into a 24bit BCD value
   291 2635												BIN2BCD
   292 2635 20 14 26											JSR LIMPIORES
   293 2638 A9 00												LDA #0		  ;Clear the result area
   294 263A 8D 0D 26											STA RESBCD+0
   295 263D 8D 0E 26											STA RESBCD+1
   296 2640 8D 0F 26											STA RESBCD+2
   297 2643 8D 10 26											STA RESBCD+3
   298 2646 A2 18												LDX #24		 ;Setup the bit counter
   299 2648 F8												SED			 ;Enter decimal mode
   300 2649												LOOPHEX
   301 2649 0E 11 26											ASL VAL+0	   ;Shift a bit out of the binary
   302 264C 2E 12 26											ROL VAL+1
   303 264F 2E 13 26											ROL VAL+2	   ;... value
   304 2652 AD 0D 26											LDA RESBCD+0	   ;And add it into the result, doubling
   305 2655 6D 0D 26											ADC RESBCD+0	   ;... it at the same time
   306 2658 8D 0D 26											STA RESBCD+0
   307 265B AD 0E 26											LDA RESBCD+1
   308 265E 6D 0E 26											ADC RESBCD+1
   309 2661 8D 0E 26											STA RESBCD+1
   310 2664 AD 0F 26											LDA RESBCD+2
   311 2667 6D 0F 26											ADC RESBCD+2
   312 266A 8D 0F 26											STA RESBCD+2
   313 266D AD 10 26											LDA RESBCD+3
   314 2670 6D 10 26											ADC RESBCD+3
   315 2673 8D 10 26											STA RESBCD+3
   316 2676 CA												DEX			 ;More bits to process?
   317 2677 D0 D0												BNE LOOPHEX
   318 2679 D8												CLD			 ;Leave decimal mode
   319 													;BRK
   320 267A												BCD2ATASCII
   321 267A A2 04												LDX #4
   322 267C A0 00												LDY #0
   323 267E												LOOP2
   324 267E BD 0C 26											LDA RESBCD-1,X
   325 2681 4A												LSR
   326 2682 4A												LSR
   327 2683 4A												LSR
   328 2684 4A												LSR
   329 2685 09 10												ORA #$10
   330 2687 99 05 26											STA RESATASCII,Y
   331 268A BD 0C 26											LDA RESBCD-1,X
   332 268D 29 0F												AND #$0F
   333 268F 09 10												ORA #$10
   334 2691 99 06 26											STA RESATASCII+1,Y
   335 2694 C8												INY
   336 2695 C8												INY
   337 2696 CA												DEX
   338 2697 D0 E5												BNE LOOP2
   339 2699 60												RTS
   340
   341 269A												HEXATASCII
   342 269A 00 00 00 00											.BYTE $00,$00,$00,$00
   343 												;
   344 269E												BIN3BCD
   345 269E 20 14 26											JSR LIMPIORES
   346 26A1 A2 01												LDX #1	;X BYTES DE INDICE
   347 26A3 A0 00												LDY #0
   348 26A5												ROTATE
   349 												;OBTENEMOS EL NIBBLE ALTO
   350 26A5 BD 11 26											LDA VAL,X
   351 26A8 4A												LSR 
   352 26A9 4A												LSR
   353 26AA 4A												LSR
   354 26AB 4A												LSR
   355 												;GUARDAMOS EL NIBLE ALTO
   356 26AC 99 9A 26											STA HEXATASCII,Y
   357 												;AHORA OBTENEMOS EL NYBBLE BAJO
   358 26AF BD 11 26											LDA VAL,X
   359 26B2 29 0F												AND #$0F	;NYBBLE BAJO
   360 26B4 C8												INY
   361 26B5 99 9A 26											STA HEXATASCII,Y
   362 26B8 C8												INY
   363 26B9 CA												DEX
   364 26BA 10 E9												BPL ROTATE
   365 26BC A0 00												LDY #0
   366 26BE A2 03												LDX #3
   367 26C0												BYTEHEX
   368 26C0 B9 9A 26											LDA HEXATASCII,Y
   369 26C3 C9 0A												CMP #$0A 
   370 26C5 90 02												BCC ADD48
   371 26C7 69 06												ADC #$06 ; "A-0"
   372 26C9												ADD48
   373 26C9 69 10												ADC #$10
   374 26CB 99 9A 26											STA HEXATASCII,Y
   375 26CE C8												INY
   376 26CF CA												DEX
   377 26D0 10 EE												BPL BYTEHEX
   378 26D2 60												RTS
   379 												;************************************************
   380 												;FUNCION QUE NOS PERMITE PODER CONVERTIR UN BYTE
   381 												;EN ATASCII, USADO PARA INGRESO DE TITULOS Y
   382 												;FUENTE, NO TIENE LIMITACIONES MAYORES EN LAS
   383 												;PULSACIONES DEL TECLADO
   384 												;************************************************
   385 26D3												ASCINT
   386 26D3 C9 20												CMP #32
   387 26D5 90 12												BCC ADD64
   388 26D7 C9 60												CMP #96
   389 26D9 90 13												BCC SUB32
   390 26DB C9 80												CMP #128
   391 26DD 90 12												BCC REMAIN
   392 26DF C9 A0												CMP #160
   393 26E1 90 06												BCC ADD64
   394 26E3 C9 E0												CMP #224
   395 26E5 90 07												BCC SUB32
   396 26E7 B0 08												BCS REMAIN
   397 26E9												ADD64
   398 26E9 18												CLC
   399 26EA 69 40												ADC #64
   400 26EC 90 03												BCC REMAIN
   401 26EE												SUB32
   402 26EE 38												SEC
   403 26EF E9 20												SBC #32
   404 26F1												REMAIN
   405 26F1 60												RTS
   406 												;************************************************
   407 												;RUTINA QUE NOS PERMMITE PODER INGRESAR INFORMA-
   408 												;CION A UN CAMPO ESPECIFICO YA ANTES DECLARADO
   409 												;MOSTRANDO UN CURSOR EN FORMA PARPADEANTE
   410 												;************************************************
   411 												;
   412 												;************************************************
   413 												;CURSOR PARPADEANTE
   414 												;************************************************
   415 26F2												FLSH
   416 26F2 AC 2B 25											LDY RY
   417 26F5 B1 CB												LDA (PCRSR),Y
   418 26F7 49 3F												EOR #63
   419 26F9 91 CB												STA (PCRSR),Y
   420 26FB A9 10												LDA #$10
   421 26FD 8D 1A 02											STA $021A
   422 2700 60												RTS
   423 												;************************************************
   424 												;ABRE PERIFERICO TECLADO
   425 												;************************************************
   426 2701												OPENK
   427 2701 A9 FF												LDA #255
   428 2703 8D FC 02											STA 764
   429 2706 A2 10												LDX #$10
   430 2708 A9 03												LDA #$03
   431 270A 9D 42 03											STA $0342,X
   432 270D 9D 45 03											STA $0345,X
   433 2710 A9 26												LDA #$26
   434 2712 9D 44 03											STA $0344,X
   435 2715 A9 04												LDA #$04
   436 2717 9D 4A 03											STA $034A,X
   437 271A 20 56 E4											JSR $E456
   438 271D A9 07												LDA #$07
   439 271F 9D 42 03											STA $0342,X
   440 2722 A9 00												LDA #$00
   441 2724 9D 48 03											STA $0348,X
   442 2727 9D 49 03											STA $0349,X
   443 272A 8D 2B 25											STA RY
   444 272D 60												RTS
   445 												;************************************************
   446 												;RUTINA QUE LEE LO TECLEADO
   447 												;************************************************
   448 272E												RUTLEE
   449 272E A2 F2												LDX # <FLSH
   450 2730 A0 26												LDY # >FLSH
   451 2732 A9 10												LDA #$10
   452 2734 8E 28 02											STX $0228
   453 2737 8C 29 02											STY $0229
   454 273A 8D 1A 02											STA $021A
   455 273D												NOGETEC
   456 273D 20 01 27											JSR OPENK
   457 2740												GETEC
   458 2740 20 56 E4											JSR $E456
   459 2743 C9 7E												CMP #$7E	
   460 2745 D0 14												BNE C0		;ES DIFERENTE A DELETE
   461 2747 AC 2B 25											LDY RY
   462 274A F0 F4												BEQ GETEC
   463 274C A9 00												LDA #$00
   464 274E 91 CB												STA (PCRSR),Y
   465 2750 A9 3F												LDA #63		;$3F
   466 2752 88												DEY
   467 2753 91 CB												STA (PCRSR),Y
   468 2755 CE 2B 25											DEC RY
   469 2758 4C 40 27											JMP GETEC
   470 275B												C0
   471 275B C9 9B												CMP #155	;$9B RETURN
   472 275D F0 12												BEQ C2
   473 275F 20 D3 26											JSR ASCINT
   474 2762 AC 2B 25											LDY RY
   475 2765 91 CB												STA (PCRSR),Y
   476 2767 C0 14												CPY #20		;#14
   477 2769 F0 03												BEQ C1
   478 276B EE 2B 25											INC RY
   479 276E												C1
   480 276E 4C 40 27											JMP GETEC
   481 2771												C2
   482 2771 20 12 32											JSR CLOSE
   483 2774 A9 00												LDA #$00
   484 2776 8D 1A 02											STA $021A
   485 2779 AC 2B 25											LDY RY
   486 277C 91 CB												STA (PCRSR),Y
   487 277E												FINRUTLEE
   488 277E 60												RTS
   489 												;************************************************
   490 												;VALORES PRINCIPALES QUE REGULA LOS BAUDIOS
   491 												;CODIGO DONADO POR WILLYSOFT
   492 												;************************************************
   493 = 05CC											B00600 	= $05CC		;TIMER  600 BPS
   494 = 0458											B00800 	= $0458  	;TIMER  800 BPS
   495 = 0380											B00990 	= $0380  	;TIMER  991 BPS
   496 = 0303											B01150 	= $0303  	;TIMER 1150 BPS
   497 = 0278											B01400	= $0278		;TIMER 1400 BPS
   498 												;************************************************
   499 												;************************************************
   500 												;FUNCION PARA REGULAR LA VELOCIDAD AL GRABAR
   501 												;************************************************
   502 												;
   503 277F												BAUD.600
   504 277F A9 CC												LDA # <B00600
   505 2781 20 B8 27											JSR BAUD.M1
   506 2784 A9 05												LDA # >B00600
   507 2786 4C AE 27											JMP BAUD.M2
   508 2789												BAUD.800
   509 2789 A9 58												LDA # <B00800
   510 278B 20 B8 27											JSR BAUD.M1
   511 278E A9 04												LDA # >B00800
   512 2790 4C AE 27											JMP BAUD.M2
   513 2793												BAUD.990
   514 2793 A9 80												LDA # <B00990
   515 2795 20 B8 27											JSR BAUD.M1
   516 2798 A9 03												LDA # >B00990
   517 279A 4C AE 27											JMP BAUD.M2
   518 279D												BAUD.1150
   519 279D A9 03												LDA # <B01150
   520 279F 20 B8 27											JSR BAUD.M1
   521 27A2 A9 03												LDA # >B01150
   522 27A4 4C AE 27											JMP BAUD.M2
   523 27A7												BAUD.1400
   524 27A7 A9 78												LDA # <B01400
   525 27A9 20 B8 27											JSR BAUD.M1
   526 27AC A9 02												LDA # >B01400
   527 27AE												BAUD.M2
   528 27AE 8D A8 EB											STA $EBA8
   529 27B1 8D 46 FD											STA $FD46
   530 27B4 8D E1 FC											STA $FCE1
   531 27B7 60												RTS
   532 27B8												BAUD.M1
   533 27B8 8D A3 EB											STA $EBA3
   534 27BB 8D 41 FD											STA $FD41
   535 27BE 8D DC FC											STA $FCDC
   536 27C1 60												RTS
    12 27C2												DISPLAY
    13 27C2 70 70 70										:3  .BY $70
    14 27C5 46											    .BY $46
    15 27C6 E1 27											    .WO SHOW
    16 27C8 02 02 02 02 02 02 02 02 02 02 02 02 02 02						:14  .BY $02
    17 27D6 02 02 02 02 02 02 02 02									:8    .BY $02
    18 27DE 41											    .BY $41
    19 27DF C2 27											    .WO DISPLAY
    20 27E1												SHOW
    21 27E1 00 00 00 00 00 00 00 00 00 00 00 00 00 00 00 00 00 00 00 00				:20 .SB " "
    22 27F5 51 52 52 52 52 52 52 52 52 52 52 52 52 52 52 52 52 52 52 52 52 52 52 52 52 52 52 52 +       .SB +32,"QRRRRRRRRRRRRRRRRRRRRRRRRRRRRRRRRRRRRRRE"
    23 281D 7C 00 00 24 2F 27 24 21 32 2B 00 2D 35 2C 34 29 22 21 2E 23 2F 33 00 2E 28 30 00 13 +       .SB "|  DOGDARK MULTIBANCOS NHP 3.0 - 2025  |"
    24 2845 41 52 52 52 52 52 52 52 52 52 52 52 52 52 52 52 57 52 52 52 52 52 52 52 52 52 52 52 +       .SB +32,"ARRRRRRRRRRRRRRRWRRRRRRRRRRRRRRRRRRRRRRD"
    25 286D 7C 2D 25 2D 2F 32 29 21 00 00 00 00 00 00 00 00 7C 00 00 00 00 00 00 00 00 00 00 00 +       .SB "|MEMORIA        |              "
    26 288C												MEMORIAPR
    27 288C 0A 0A 0A 0A 0A 0A 0A 00 7C								    .SB "******* |"
    28 2895 7C 22 21 2E 23 2F 33 00 24 29 33 30 2F 0E 00 00 7C 00 00 00 00 00 00 00 00 00 00 00 +       .SB "|BANCOS DISPO.  |                   "
    29 28B9												BANCOSPR
    30 28B9 0A 0A 00 7C										    .SB "** |"
    31 28BD 7C 30 2F 32 34 22 00 25 2E 00 35 33 2F 00 00 00 7C 00 00 00 00 00 00 00 00 00 00 00 +       .SB "|PORTB EN USO   |                  $"
    32 28E1												PORTBPR
    33 28E1 0A 0A 00 7C										    .SB "** |"
    34 28E5 7C 36 25 2C 2F 23 29 24 21 24 00 00 00 00 00 00 7C 00 00 00 00 00 00 00 00 00 00	    .SB "|VELOCIDAD      |          "
    35 2900												BAUDIOSPR
    36 2900 16 10 10 00 22 21 35 24 29 2F 33 00 7C							    .SB "600 BAUDIOS |"
    37 290D 7C 22 39 34 25 33 00 38 00 22 2C 2F 31 35 25 33 7C 00 00 00 00 00 00 00 00 00 00 00 +       .SB "|BYTES X BLOQUES|            "
    38 292A												BYTESPR
    39 292A 12 15 11 00 22 39 34 25 33 00 7C							    .SB "251 BYTES |"
    40 2935 7C 22 39 34 25 33 00 2C 25 29 24 2F 33 00 00 00 7C 00 00 00 00 00 00 00 00 00 00 00 +       .SB "|BYTES LEIDOS   |              "
    41 2954												BYTESLEIDOSPR
    42 2954 0A 0A 0A 0A 0A 0A 0A 00 7C								    .SB "******* |"
    43 295D 7C 22 2C 2F 31 35 25 33 00 27 32 21 22 21 32 00 7C 00 00 00 00 00 00 00			    .SB "|BLOQUES GRABAR |       "
    44 2975												BLOQUESLEIDOSPR
    45 2975 0A 0A 0A 0A 00 32 25 33 34 21 2E 34 25 33 00 7C						    .SB "**** RESTANTES |"
    46 2985 7C 34 29 34 35 2C 2F 00 21 32 23 28 29 36 2F 00 7C 00					    .SB "|TITULO ARCHIVO | "
    47 2997												TITULOARPR
    48 2997 0A 0A 0A 0A 0A 0A 0A 0A 0A 0A 0A 0A 0A 0A 0A 0A 0A 0A 0A 0A 00 7C			    .SB "******************** |"
    49 29AD 7C 34 29 34 35 2C 2F 00 2F 30 23 29 2F 2E 21 2C 7C 00					    .SB "|TITULO OPCIONAL| "
    50 29BF												TITULOOPPR
    51 29BF 0A 0A 0A 0A 0A 0A 0A 0A 0A 0A 0A 0A 0A 0A 0A 0A 0A 0A 0A 0A 00 7C			    .SB "******************** |"
    52 29D5 7C 26 35 25 2E 34 25 00 00 00 00 00 00 00 00 00 7C 00					    .SB "|FUENTE         | "
    53 29E7												FUENTEPR
    54 29E7 0A 0A 0A 0A 0A 0A 0A 0A 0A 0A 0A 0A 0A 0A 0A 0A 0A 0A 0A 0A 00 7C			    .SB "******************** |"
    55 29FD 5A 52 52 52 52 52 52 52 52 52 52 52 52 52 52 52 58 52 52 52 52 52 52 52 52 52 52 52 +       .SB +32,"ZRRRRRRRRRRRRRRRXRRRRRRRRRRRRRRRRRRRRRRC"
    56 2A25												BANQUEO
    57 2A25 29 2E 29 23 29 2F 00 22 21 2E 31 35 25 2F 0A 0A 0A 0A 0A 0A 0A 0A 0A 0A 0A 0A 0A 0A +       .SB "INICIO BANQUEO**************************"  ;40
    58 2A4D 0A 0A 0A 0A 0A 0A 0A 0A 0A 0A 0A 0A 0A 0A 0A 0A 0A 0A 0A 0A 0A 0A 0A 0A 0A 0A 0A 0A +       .SB "****************************************"  ;80
    59 2A75 0A 0A 0A 0A 0A 0A 0A 0A 0A 0A 0A 0A 0A 0A 0A 0A 0A 0A 0A 0A 0A 0A 0A 0A 0A 0A 0A 0A +       .SB "****************************************"  ;120
    60 2A9D 0A 0A 0A 0A 0A 0A 0A 0A 0A 0A 0A 0A 0A 0A 0A 0A 0A 0A 0A 0A 0A 0A 0A 0A 0A 0A 0A 0A +       .SB "****************************************"  ;160
    61 2AC5 0A 0A 0A 0A 0A 0A 0A 0A 0A 0A 0A 0A 0A 0A 0A 0A 0A 0A 0A 0A 0A 0A 0A 0A 0A 0A 0A 0A +       .SB "****************************************"  ;200
    62 2AED 0A 0A 0A 0A 0A 0A 0A 0A 0A 0A 0A 0A 0A 0A 0A 0A 0A 0A 0A 0A 0A 0A 0A 0A 0A 0A 0A 0A +       .SB "****************************************"  ;240
    63 2B15 0A 0A 0A 0A 0A 0A 0A 0A 0A 0A 0A 0A 0A 0A 0A 0A 0A 0A 0A 0A 0A 0A 0A 0A 0A 0A 0A 0A +       .SB "*****************************FIN BANQUEO"  ;280
    64 2B3D												MENSAJES
    65 2B3D 80 80 80 80 80 80 80 80 80 80 80 80 80 80 80 80 80 80 80 80 80 80 80 80 80 80 80 80 +   :40    .SB +128," "
    66 2B65												MENSAJEINICIO
    67 2B65 B3 A5 AC A5 A3 B4 80 BB A2 B9 B4 A5 B3 80 A2 AC AF B1 B5 A5 B3 BD 80 80 AF B0 B4 A9 +       .SB +128,"SELECT [BYTES BLOQUES]  OPTION [BAUDIOS]"
    68 2B8D												MENSAJECARGANDO
    69 2B8D 80 80 80 80 80 80 A3 A1 B2 A7 A1 AE A4 AF 80 A1 B2 A3 A8 A9 B6 AF 80 A5 AE 80 AD A5 +       .SB +128,"      CARGANDO ARCHIVO EN MEMORIA.      "
    70 2BB5												MENSAJERETURN
    71 2BB5 80 80 B0 B2 A5 B3 A9 AF AE A5 80 B2 A5 B4 B5 B2 AE 80 B0 A1 B2 A1 80 A7 B2 A1 A2 A1 +       .SB +128,"  PRESIONE RETURN PARA GRABAR ARCHIVO.  "
    72 2BDD												MENSAJEINICIANDO
    73 2BDD 80 80 80 80 80 80 80 80 80 80 A9 AE A9 A3 A9 A1 AE A4 AF 80 A7 B2 A1 A2 A1 A3 A9 AF +       .SB +128,"          INICIANDO GRABACION           "
    74 2C05												MENSAJEPAGINA7
    75 2C05 80 80 80 80 80 80 80 80 80 80 80 80 A7 B2 A1 A2 A1 AE A4 AF 80 B0 A1 A7 A9 AE A1 97 +       .SB +128,"            GRABANDO PAGINA7            "
    76 2C2D												MENSAJEPAGINA4
    77 2C2D 80 80 80 80 80 80 80 80 80 80 80 80 A7 B2 A1 A2 A1 AE A4 AF 80 B0 A1 A7 A9 AE A1 94 +       .SB +128,"            GRABANDO PAGINA4            "
    78 2C55												MENSAJELOADER
    79 2C55 80 80 80 80 80 80 80 80 80 80 80 80 A7 B2 A1 A2 A1 AE A4 AF 80 80 AC AF A1 A4 A5 B2 +       .SB +128,"            GRABANDO  LOADER            "
    80 2C7D												MENSAJEARCHIVO
    81 2C7D 80 80 80 80 80 80 80 80 A7 B2 A1 A2 A1 AE A4 AF 80 A1 B2 A3 A8 A9 B6 AF 80 A1 80 A3 +       .SB +128,"        GRABANDO ARCHIVO A CINTA        "
    82 2CA5												MENSAJEFINGRABACION
    83 2CA5 80 80 80 80 80 80 80 80 80 A6 A9 AE 80 A7 B2 A1 A2 A1 A3 A9 AF AE 80 A4 A5 80 A3 A9 +       .SB +128,"         FIN GRABACION DE CINTA         "
    84 2CCD												ES128
    85 2CCD 11 12 18										    .SB "128"
    86 2CD0												ES253
    87 2CD0 12 15 11										    .SB "251"
    88 2CD3												ESSTANDART
    89 2CD3 16 10 10										    .SB "600"
    90 2CD6												ESSTAC
    91 2CD6 18 10 10										    .SB "800"
    92 2CD9												SISTEMA
    93 2CD9 00											    .BY $00 
    94 2CDA												ARMOLOGO
    95 2CDA A2 13											    LDX #19
    96 2CDC												ARMOLOGO01
    97 2CDC BD 6D 2F										    LDA DATADISPLAY,X
    98 2CDF 9D E1 27										    STA SHOW,X
    99 2CE2 9D 9C 23										    STA LOGOPAGINA7,X
   100 2CE5 9D 31 20										    STA TITULOLOGO,X
   101 2CE8 CA											    DEX
   102 2CE9 10 F1											    BPL ARMOLOGO01
   103 2CEB 60											    RTS
   104 												;FUUNCIONES DE LIMPIEZA
   105 2CEC												LIMPIOBANQUEO
   106 2CEC A9 00											    LDA #$00
   107 2CEE A2 27											    LDX #39
   108 2CF0												LIMPIOBANQUEO01
   109 2CF0 9D 25 2A										    STA BANQUEO,X
   110 2CF3 9D 4D 2A										    STA BANQUEO+40,X
   111 2CF6 9D 75 2A										    STA BANQUEO+80,X
   112 2CF9 9D 9D 2A										    STA BANQUEO+120,X
   113 2CFC 9D C5 2A										    STA BANQUEO+160,X
   114 2CFF 9D ED 2A										    STA BANQUEO+200,X
   115 2D02 9D 15 2B										    STA BANQUEO+240,X
   116 2D05 CA											    DEX
   117 2D06 10 E8											    BPL LIMPIOBANQUEO01
   118 2D08 60											    RTS
   119 2D09												LIMPIOTITULO
   120 2D09 A9 00											    LDA #$00
   121 2D0B A2 13											    LDX #19
   122 2D0D												LIMPIOTITULO01
   123 2D0D 9D 97 29										    STA TITULOARPR,X
   124 2D10 CA											    DEX
   125 2D11 10 FA											    BPL LIMPIOTITULO01
   126 2D13 60											    RTS
   127 2D14												LIMPIOOPCIONAL
   128 2D14 A9 00											    LDA #$00
   129 2D16 A2 13											    LDX #19
   130 2D18												LIMPIOOPCIONAL01
   131 2D18 9D BF 29										    STA TITULOOPPR,X
   132 2D1B CA											    DEX
   133 2D1C 10 FA											    BPL LIMPIOOPCIONAL01
   134 2D1E 60											    RTS
   135 2D1F												LIMPIOFUENTE
   136 2D1F A9 00											    LDA #$00
   137 2D21 A2 13											    LDX #19
   138 2D23												LIMPIOFUENTE01
   139 2D23 9D E7 29										    STA FUENTEPR,X
   140 2D26 CA											    DEX 
   141 2D27 10 FA											    BPL LIMPIOFUENTE01
   142 2D29 60											    RTS
   143 2D2A												LIMPIOBYTES
   144 2D2A A9 00											    LDA #$00
   145 2D2C 8D 12 30										    STA BYTES
   146 2D2F 8D 13 30										    STA BYTES+1
   147 2D32 8D 14 30										    STA BYTES+2
   148 2D35 60											    RTS
   149 2D36												LIMPIOBLOQUES
   150 2D36 A9 00											    LDA #$00
   151 2D38 8D 15 30										    STA BLOQUES
   152 2D3B 8D 16 30										    STA BLOQUES+1
   153 2D3E 60											    RTS
   154 2D3F												LIMPIORY
   155 2D3F A9 00											    LDA #$00
   156 2D41 8D 2B 25										    STA RY
   157 2D44 8D 2C 25										    STA RY+1
   158 2D47 8D 2D 25										    STA RY+2
   159 2D4A 60											    RTS
   160 2D4B												ESPORTB
   161 2D4B 20 2A 26										    JSR LIMPIOVAL
   162 2D4E AD 01 D3										    LDA PORTB
   163 2D51 8D 11 26										    STA VAL
   164 2D54 20 9E 26										    JSR BIN3BCD
   165 2D57 AD 9D 26										    LDA HEXATASCII+3
   166 2D5A 8D E2 28										    STA PORTBPR+1
   167 2D5D AD 9C 26										    LDA HEXATASCII+2
   168 2D60 8D E1 28										    STA PORTBPR
   169 2D63 60											    RTS
   170 2D64												ESBANCOS
   171 2D64 20 2A 26										    JSR LIMPIOVAL
   172 2D67 AD 2A 25										    LDA BANKOS
   173 2D6A 8D 11 26										    STA VAL
   174 2D6D 20 35 26										    JSR BIN2BCD
   175 2D70 AD 0C 26										    LDA RESATASCII+7
   176 2D73 8D BA 28										    STA BANCOSPR+1
   177 2D76 AD 0B 26										    LDA RESATASCII+6
   178 2D79 8D B9 28										    STA BANCOSPR
   179 2D7C 60											    RTS
   180 2D7D												ESMEMORIA
   181 2D7D 20 2A 26										    JSR LIMPIOVAL
   182 2D80 AD 31 25										    LDA MEMORIA
   183 2D83 8D 11 26										    STA VAL
   184 2D86 AD 32 25										    LDA MEMORIA+1
   185 2D89 8D 12 26										    STA VAL+1
   186 2D8C AD 33 25										    LDA MEMORIA+2
   187 2D8F 8D 13 26										    STA VAL+2
   188 2D92 20 35 26										    JSR BIN2BCD
   189 2D95 A0 07											    LDY #7
   190 2D97 A2 06											    LDX #6
   191 2D99												ESMEMORIA01
   192 2D99 B9 05 26										    LDA RESATASCII,Y
   193 2D9C 9D 8C 28										    STA MEMORIAPR,X
   194 2D9F 88											    DEY
   195 2DA0 CA											    DEX
   196 2DA1 10 F6											    BPL ESMEMORIA01
   197 2DA3 60											    RTS
   198 2DA4												ESBYTESLEIDOS
   199 2DA4 20 2A 26										    JSR LIMPIOVAL
   200 2DA7 AD 12 30										    LDA BYTES
   201 2DAA 8D 11 26										    STA VAL
   202 2DAD AD 13 30										    LDA BYTES+1
   203 2DB0 8D 12 26										    STA VAL+1
   204 2DB3 AD 14 30										    LDA BYTES+2
   205 2DB6 8D 13 26										    STA VAL+2
   206 2DB9 20 35 26										    JSR BIN2BCD
   207 2DBC A0 07											    LDY #7
   208 2DBE A2 06											    LDX #6
   209 2DC0												ESBYTESLEIDOS01
   210 2DC0 B9 05 26										    LDA RESATASCII,Y
   211 2DC3 9D 54 29										    STA BYTESLEIDOSPR,X
   212 2DC6 88											    DEY
   213 2DC7 CA											    DEX
   214 2DC8 10 F6											    BPL ESBYTESLEIDOS01
   215 2DCA 60											    RTS
   216 2DCB												ESBLOQUESLIEDOS
   217 2DCB 20 2A 26										    JSR LIMPIOVAL
   218 2DCE AD 15 30										    LDA BLOQUES
   219 2DD1 8D 11 26										    STA VAL
   220 2DD4 AD 16 30										    LDA BLOQUES+1
   221 2DD7 8D 12 26										    STA VAL+1
   222 2DDA 20 35 26										    JSR BIN2BCD
   223 2DDD A0 07											    LDY #7
   224 2DDF A2 03											    LDX #3
   225 2DE1												ESBLOQUESLIEDOS01
   226 2DE1 B9 05 26										    LDA RESATASCII,Y
   227 2DE4 9D 75 29										    STA BLOQUESLEIDOSPR,X
   228 2DE7 88											    DEY
   229 2DE8 CA											    DEX
   230 2DE9 10 F6											    BPL ESBLOQUESLIEDOS01
   231 2DEB 60											    RTS
   232 2DEC												ESMENSAJEINICIO
   233 2DEC A2 27											    LDX #39
   234 2DEE												ESMENSAJEINICIO01
   235 2DEE BD 65 2B										    LDA MENSAJEINICIO,X
   236 2DF1 9D 3D 2B										    STA MENSAJES,X
   237 2DF4 CA											    DEX
   238 2DF5 10 F7											    BPL ESMENSAJEINICIO01
   239 2DF7 60											    RTS
   240 2DF8												ESMENSAJECARGANDO
   241 2DF8 A2 27											    LDX #39
   242 2DFA												ESMENSAJECARGANDO01
   243 2DFA BD 8D 2B										    LDA MENSAJECARGANDO,X
   244 2DFD 9D 3D 2B										    STA MENSAJES,X
   245 2E00 CA											    DEX
   246 2E01 10 F7											    BPL ESMENSAJECARGANDO01
   247 2E03 60											    RTS
   248 2E04												ESMENSAJERETURN
   249 2E04 A2 27											    LDX #39
   250 2E06												ESMENSAJERETURN01
   251 2E06 BD B5 2B										    LDA MENSAJERETURN,X
   252 2E09 9D 3D 2B										    STA MENSAJES,X
   253 2E0C CA											    DEX
   254 2E0D 10 F7											    BPL ESMENSAJERETURN01
   255 2E0F 60											    RTS
   256 2E10												ESMENSAJEINICIANDO
   257 2E10 A2 27											    LDX #39
   258 2E12												ESMENSAJEINICIANDO01
   259 2E12 BD DD 2B										    LDA MENSAJEINICIANDO,X
   260 2E15 9D 3D 2B										    STA MENSAJES,X
   261 2E18 CA											    DEX
   262 2E19 10 F7											    BPL ESMENSAJEINICIANDO01
   263 2E1B 60											    RTS
   264 2E1C												ESMENSAJEPAGINA7
   265 2E1C A2 27											    LDX #39
   266 2E1E												MENSAJEPAGINA701
   267 2E1E BD 05 2C										    LDA MENSAJEPAGINA7,X
   268 2E21 9D 3D 2B										    STA MENSAJES,X
   269 2E24 CA											    DEX
   270 2E25 10 F7											    BPL MENSAJEPAGINA701
   271 2E27 60											    RTS
   272 2E28												ESMENSAJEPAGINA4
   273 2E28 A2 27											    LDX #39
   274 2E2A												MENSAJEPAGINA401
   275 2E2A BD 2D 2C										    LDA MENSAJEPAGINA4,X
   276 2E2D 9D 3D 2B										    STA MENSAJES,X
   277 2E30 CA											    DEX
   278 2E31 10 F7											    BPL MENSAJEPAGINA401
   279 2E33 60											    RTS
   280 2E34												ESMENSAJEPAGINALOAD
   281 2E34 A2 27											    LDX #39
   282 2E36												ESMENSAJEPAGINALOAD01
   283 2E36 BD 55 2C										    LDA MENSAJELOADER,X
   284 2E39 9D 3D 2B										    STA MENSAJES,X
   285 2E3C CA											    DEX
   286 2E3D 10 F7											    BPL ESMENSAJEPAGINALOAD01
   287 2E3F 60											    RTS
   288 2E40												RESETER
   289 2E40 20 DA 2C										    JSR ARMOLOGO
   290 2E43 20 EC 2C										    JSR LIMPIOBANQUEO
   291 2E46 20 4B 2D										    JSR ESPORTB
   292 2E49 20 64 2D										    JSR ESBANCOS
   293 2E4C 20 09 2D										    JSR LIMPIOTITULO
   294 2E4F 20 14 2D										    JSR LIMPIOOPCIONAL
   295 2E52 20 1F 2D										    JSR LIMPIOFUENTE
   296 2E55 20 7D 2D										    JSR ESMEMORIA
   297 2E58 20 2A 2D										    JSR LIMPIOBYTES
   298 2E5B 20 A4 2D										    JSR ESBYTESLEIDOS
   299 2E5E 20 36 2D										    JSR LIMPIOBLOQUES
   300 2E61 20 CB 2D										    JSR ESBLOQUESLIEDOS
   301 2E64 20 EC 2D										    JSR ESMENSAJEINICIO
   302 2E67 A9 3F											    LDA #63
   303 2E69 8D 97 29										    STA TITULOARPR
   304 2E6C 8D BF 29										    STA TITULOOPPR
   305 2E6F 8D E7 29										    STA FUENTEPR
   306 2E72 60											    RTS
   307 												;************************************************
   308 												;DISPLAY DE INICIO DEL PROGRAMA Y FUNCIONALIDAD
   309 												;DIRECTA A TODAS SUS FUNCIONES
   310 												;************************************************
   311 2E73												DOSPR
   312 2E73 6C 0C 00											JMP ($0C)
   313 2E76												@STARTPR
   314 2E76 20 73 2E											JSR DOSPR
   315 2E79												STARTPR
   316 2E79 20 40 2E										    JSR RESETER
   317 2E7C A2 C2											    LDX #<DISPLAY
   318 2E7E A0 27											    LDY #>DISPLAY
   319 2E80 8E 30 02										    STX $230
   320 2E83 8C 31 02										    STY $231
   321 2E86 A9 60											    LDA #$60
   322 2E88 8D C6 02										    STA 710
   323 2E8B 8D C8 02										    STA 712
   324 												;ACTIVAMOS LA TECLA OPTION EN SEGUNDO PLANO PARA CAMBIO DE SISTEMA NORMAL STAC
   325 2E8E A0 81											    LDY #<VBI
   326 2E90 A2 2F											    LDX #>VBI
   327 2E92 A9 07											    LDA #$07
   328 2E94 20 5C E4										    JSR SETVBV
   329 												;INGRESO TITULO ARCHIVO
   330 2E97 A2 97											    LDX #<TITULOARPR
   331 2E99 A0 29											    LDY #>TITULOARPR
   332 2E9B 86 CB											    STX PCRSR
   333 2E9D 84 CC											    STY PCRSR+1
   334 2E9F 20 2E 27										    JSR RUTLEE
   335 2EA2 98											    TYA
   336 2EA3 F0 1F												BEQ NOTITLE
   337 2EA5 4A												LSR 
   338 2EA6 8D 2C 25											STA RY+1
   339 2EA9 A9 0A												LDA #10
   340 2EAB 38												SEC
   341 2EAC ED 2C 25											SBC RY+1
   342 2EAF 8D 2C 25											STA RY+1
   343 2EB2 A2 00												LDX #$00
   344 2EB4 AC 2C 25											LDY RY+1
   345 2EB7												WRITE
   346 												;************************************************
   347 												;AGREGO EL TITULO 01 AL LOADER
   348 												;************************************************
   349 2EB7 BD 97 29											LDA TITULOARPR,X
   350 2EBA 99 B0 23											STA TITULOPRINCIPALPAGINA7,Y
   351 2EBD C8												INY
   352 2EBE E8												INX
   353 2EBF EC 2B 25											CPX RY
   354 2EC2 D0 F3												BNE WRITE
   355 2EC4												NOTITLE
   356 												;INGRESO TITULO OPCIONAL
   357 2EC4 A2 BF											    LDX #<TITULOOPPR
   358 2EC6 A0 29											    LDY #>TITULOOPPR
   359 2EC8 86 CB											    STX PCRSR
   360 2ECA 84 CC											    STY PCRSR+1
   361 2ECC 20 2E 27										    JSR RUTLEE
   362
   363 												;INGRESO FUENTE DE ARCHIVO A CARGAR
   364 2ECF A2 E7											    LDX #<FUENTEPR
   365 2ED1 A0 29											    LDY #>FUENTEPR
   366 2ED3 86 CB											    STX PCRSR
   367 2ED5 84 CC											    STY PCRSR+1
   368 2ED7 20 2E 27										    JSR RUTLEE
   369 2EDA AC 2B 25										    LDY RY
   370 2EDD C0 01											    CPY #1
   371 2EDF F0 23												BEQ OPENPER
   372 2EE1 A0 13												LDY #19
   373 2EE3												CONV
   374 2EE3 B9 E7 29											LDA FUENTEPR,Y
   375 2EE6 F0 14												BEQ ?REMAIN
   376 2EE8 29 7F												AND #$7F
   377 2EEA C9 40												CMP #64
   378 2EEC 90 06												BCC ADD32
   379 2EEE C9 60												CMP #96
   380 2EF0 90 07												BCC SUB64
   381 2EF2 B0 08												BCS ?REMAIN
   382 2EF4												ADD32
   383 2EF4 18												CLC
   384 2EF5 69 20												ADC #32
   385 2EF7 90 05												BCC OKLET
   386 2EF9												SUB64
   387 2EF9 38												SEC
   388 2EFA E9 40												SBC #64
   389 2EFC												?REMAIN
   390 2EFC A9 9B												LDA #$9B
   391 2EFE												OKLET
   392 2EFE 99 FE 2F											STA FUENTE,Y
   393 2F01 88												DEY
   394 2F02 10 DF												BPL CONV
   395 												;************************************************
   396 												;ABRO PERIFERICO PARA LA CARGA DE ARCHIVO
   397 												;************************************************
   398 2F04												OPENPER
   399 2F04 20 12 32										    JSR CLOSE
   400 2F07 20 F8 2D										    JSR ESMENSAJECARGANDO
   401 2F0A 20 F0 31										    JSR OPEN
   402 2F0D 20 E3 32										    JSR FGET
   403 2F10 20 12 32										    JSR CLOSE
   404 2F13 20 04 2E										    JSR ESMENSAJERETURN
   405 												;DAMOS 15 SEGUNDO AL INICIO DE LA CINTA
   406 												;DESHABILITAMOS EL SISTEMA OPERATIVO
   407 2F16 A9 FE											    LDA #$FE   ;ORIGINAL $FF
   408 2F18 8D 01 D3										    STA $D301
   409 												;DEJAMOS EL IRG INICIAL EN 15 SEGUNDOS
   410 2F1B A9 03											    LDA #$03
   411 2F1D 8D 8D FE										    STA $FE8D
   412 2F20 A9 02											    LDA #$02
   413 2F22 8D 8E FE										    STA $FE8E
   414 2F25 A9 86											    LDA #$86    ;DURACION DEL TIME DEL IRG 15 SEGUNDOS
   415 2F27 8D 8F FE										    STA $FE8F
   416 2F2A A9 8A											    LDA #$8A
   417 2F2C 8D 90 FE										    STA $FE90
   418 2F2F 20 CE 33										    JSR OPENC   ;ABRIMOS PERIFERICO
   419 2F32 20 6F 34										    JSR GAUTO
   420
   421
   422
   423
   424
   425
   426
   427
   428
   429 2F35 A2 3C											    LDX #$3C		;CIERRO GRABACION
   430 2F37 A9 03												LDA #$03		
   431 2F39 8D 0F D2											STA 53775		;$d20f
   432 2F3C 8E 02 D3											STX $D302
   433 2F3F A5 FF											    LDA $FF
   434 2F41 8D 01 D3										    STA PORTB
   435
   436 2F44 A9 02											    LDA #$02
   437 2F46 8D C6 02										    STA 710
   438 2F49 8D C8 02										    STA 712
   439
   440
   441
   442
   443
   444
   445
   446
   447
   448
   449 2F4C 4C 4C 2F										    JMP *
   450 2F4F												INICIO
   451 2F4F 20 12 32										    JSR CLOSE
   452 2F52 20 56 24										    JSR ROMRAM
   453 2F55 20 34 25										    JSR MEM
   454 2F58 A2 76											    LDX # <@STARTPR
   455 2F5A A0 2E											    LDY # >@STARTPR
   456 2F5C 86 02											    STX $02
   457 2F5E 84 03											    STY $03
   458 2F60 85 09											    STA $09
   459 2F62 A0 FF											    LDY #$FF
   460 2F64 84 08											    STY $08
   461 2F66 C8											    INY
   462 2F67 8C 44 02										    STY $0244
   463 2F6A 4C 79 2E										    JMP STARTPR
   464 02E0-02E1> 4F 2F										    RUN INICIO
   465 2F6D												DATADISPLAY
   466 2F6D-34CC> 00 E4 EF E7 E4									    .BY $00,$E4,$EF,$E7,$E4
   467 2F72 E1 F2 EB 00 00										    .BY $E1,$F2,$EB,$00,$00
   468 2F77 73 6F 66 74 77										    .BY $73,$6F,$66,$74,$77
   469 2F7C 61 72 65 73 00										    .BY $61,$72,$65,$73,$00
   470 												;FUNCION QUE PERMITE EJECUTAR OPTION EN SEGUNDO PLANO
   471 2F81												.proc VBI
   472 = 0001											FIN_SISTEMA=$01 //DESDE 0 A 1
   473 2F81 AD 1F D0										    LDA CONSOL
   474 2F84 CD F7 2F										    CMP CONSOL_ANTERIOR
   475 2F87 F0 35											    BEQ FIN
   476 2F89 8D F7 2F										    STA CONSOL_ANTERIOR
   477 2F8C C9 05											    CMP #$05
   478 2F8E F0 31											    BEQ ESSELECT //ES SELECT
   479 2F90 C9 03											    CMP #$03
   480 2F92 D0 2A											    BNE FIN
   481 2F94 AE D9 2C										    LDX SISTEMA
   482 2F97 E0 01											    CPX #FIN_SISTEMA
   483 2F99 D0 02											    BNE NO_FIN_SISTEMA
   484 2F9B A2 FF											    LDX #$FF
   485 2F9D												NO_FIN_SISTEMA
   486 2F9D E8											    INX
   487 2F9E 8E D9 2C										    STX SISTEMA
   488 2FA1 A9 D3											    LDA #<ESSTANDART
   489 2FA3 A0 2C											    LDY #>ESSTANDART
   490 2FA5 E0 00											    CPX #$00
   491 2FA7 F0 04											    BEQ SIGUESISTEMA
   492 2FA9 A9 D6											    LDA #<ESSTAC
   493 2FAB A0 2C											    LDY #>ESSTAC
   494 2FAD												SIGUESISTEMA
   495 2FAD 8D B6 2F										    STA LOOP_COPIA+1
   496 2FB0 8C B7 2F										    STY LOOP_COPIA+2
   497 2FB3 A2 02											    LDX #$02
   498 2FB5												LOOP_COPIA
   499 2FB5 BD D3 2C										    LDA ESSTANDART,X
   500 2FB8 9D 00 29										    STA BAUDIOSPR,X
   501 2FBB CA											    DEX
   502 2FBC 10 F7											    BPL LOOP_COPIA
   503 2FBE												FIN
   504 2FBE 4C 62 E4										    JMP $E462
   505 2FC1												ESSELECT
   506 2FC1 A2 02											    LDX #2
   507 2FC3 AD 17 30										    LDA BYTESBLOQUES
   508 2FC6 C9 FB											    CMP #$FB
   509 2FC8 F0 12											    BEQ ESSELECTFD
   510 2FCA A9 FB											    LDA #$FB
   511 2FCC 8D 17 30										    STA BYTESBLOQUES
   512 2FCF A9 D0											    LDA #<ES253
   513 2FD1 8D EC 2F										    STA FINSELECT+1
   514 2FD4 A9 2C											    LDA #>ES253
   515 2FD6 8D ED 2F										    STA FINSELECT+2
   516 2FD9 4C EB 2F										    JMP FINSELECT
   517 2FDC												ESSELECTFD
   518 2FDC A9 80											    LDA #$80
   519 2FDE 8D 17 30										    STA BYTESBLOQUES
   520 2FE1 A9 CD											    LDA #<ES128
   521 2FE3 8D EC 2F										    STA FINSELECT+1
   522 2FE6 A9 2C											    LDA #>ES128
   523 2FE8 8D ED 2F										    STA FINSELECT+2
   524 2FEB												FINSELECT
   525 2FEB BD D0 2C										    LDA ES253,X
   526 2FEE 9D 2A 29										    STA BYTESPR,X
   527 2FF1 CA											    DEX
   528 2FF2 10 F7											    BPL FINSELECT
   529 2FF4 4C BE 2F										    JMP FIN
   530 2FF7												CONSOL_ANTERIOR 
   531 2FF7 00											    .BY $00
   532 												.endp
   533 2FF8												    ICL 'cargar.asm'
Source: cargar.asm
     1 = 4000											LENGHT 	= $4000
     2 = 4000											BAFER	= $4000
     3 2FF8												ALL
     4 2FF8 44 3A 2A 2E 2A 9B										.BYTE 'D:*.*',$9B
     5 2FFE												FUENTE
     6 2FFE 20 20 20 20 20 20 20 20 20 20 20 20 20 20 20 20 20 20 20 20					.BYTE '                    '
     7 3012												BYTES
     8 3012 00 00 00										    .BY $00,$00,$00
     9 3015												BLOQUES
    10 3015 00 00											    .BY $00,$00
    11 3017												BYTESBLOQUES
    12 3017 FB												.BY $FB
    13 												;************************************************
    14 												; DEFINICION DEL DISPLAY
    15 												; PARA DIRECTORIO
    16 												;************************************************
    17 3018												?DIR
    18 3018 70 70 70 46											.BYTE $70,$70,$70,$46
    19 301C 2D 30												.WORD ???DIR
    20 301E 70 70 70 02 02 02 02 02 02 02									.BYTE $70,$70,$70,$02,$02,$02,$02,$02,$02,$02
    21 3028 02 02 41											.BYTE $02,$02,$41
    22 302B 18 30												.WORD ?DIR
    23 												;************************************************
    24 												;VALORES PARA PANTALLA DIRECTORIO
    25 												;************************************************
    26 302D												???DIR
    27 302D 00 00 00 00 00 24 29 32 25 23 34 2F 32 29 2F 00 00 00 00 00					.SB "     DIRECTORIO     "
    28 3041												??DIR
    29 3041 00 00 00 00 00 00 00 00 00 00 00 00 00 00 00 00 00 00 00 00 00 00 00 00 00 00 00 00 +   :10	.SB "                                        "
    30 												;************************************************
    31 												;GENERA UNA LIMPIEZA TOTAL DEL DISPLAY DEL
    32 												;DIRECTORIO
    33 												;************************************************
    34 31D1												CLS
    35 31D1 A2 41												LDX # <??DIR
    36 31D3 A0 30												LDY # >??DIR
    37 31D5 86 CB												STX PCRSR
    38 31D7 84 CC												STY PCRSR+1
    39 31D9 A0 00												LDY #$00
    40 31DB A2 00												LDX #$00
    41 31DD												?CLS
    42 31DD A9 00												LDA #$00
    43 31DF 91 CB												STA (PCRSR),Y
    44 31E1 C8												INY
    45 31E2 D0 03												BNE ??CLS
    46 31E4 E8												INX
    47 31E5 E6 CC												INC PCRSR+1
    48 31E7												??CLS
    49 31E7 C0 68												CPY #104	;$68
    50 31E9 D0 F2												BNE ?CLS
    51 31EB E0 01												CPX #$01
    52 31ED D0 EE												BNE ?CLS
    53 31EF 60												RTS
    54 												;************************************************
    55 												;FUNCION QUE ABRE PERIFERICOS
    56 												;************************************************
    57 31F0												OPEN
    58 31F0 A2 10												LDX #$10
    59 31F2 A9 03												LDA #$03
    60 31F4 9D 42 03											STA $0342,X
    61 31F7 A9 FE												LDA # <FUENTE
    62 31F9 9D 44 03											STA $0344,X
    63 31FC A9 2F												LDA # >FUENTE
    64 31FE 9D 45 03											STA $0345,X
    65 3201 A9 04												LDA #$04
    66 3203 9D 4A 03											STA $034A,X
    67 3206 A9 80												LDA #$80
    68 3208 9D 4B 03											STA $034B,X
    69 320B 20 56 E4											JSR $E456
    70 320E 88												DEY
    71 320F D0 0B												BNE DIR
    72 3211 60												RTS
    73 												;************************************************
    74 												;FUNCION QUE CIERRA PERIFERICOS
    75 												;************************************************
    76 3212												CLOSE
    77 3212 A2 10												LDX #$10
    78 3214 A9 0C												LDA #$0C
    79 3216 9D 42 03											STA $0342,X
    80 3219 4C 56 E4											JMP $E456
    81 												;************************************************
    82 												;MUESTRA EL DIRECTORIO EN PANTALLA
    83 												;************************************************
    84 321C												DIR
    85 321C 20 12 32											JSR CLOSE
    86 321F 20 D1 31											JSR CLS
    87 3222 A2 18												LDX # <?DIR
    88 3224 A0 30												LDY # >?DIR
    89 3226 8E 30 02											STX $0230
    90 3229 8C 31 02											STY $0231
    91 322C A2 41												LDX # <??DIR
    92 322E A0 30												LDY # >??DIR
    93 3230 86 CB												STX PCRSR
    94 3232 84 CC												STY PCRSR+1
    95 													
    96 												;	
    97 3234 A2 10												LDX #$10
    98 3236 A9 03												LDA #$03
    99 3238 9D 42 03											STA $0342,X
   100 323B A9 F8												LDA # <ALL
   101 323D 9D 44 03											STA $0344,X
   102 3240 A9 2F												LDA # >ALL
   103 3242 9D 45 03											STA $0345,X
   104 3245 A9 06												LDA #$06
   105 3247 9D 4A 03											STA $034A,X
   106 324A A9 00												LDA #$00
   107 324C 9D 4B 03											STA $034B,X
   108 324F 20 56 E4											JSR $E456
   109 3252 A9 07												LDA #$07
   110 3254 9D 42 03											STA $0342,X
   111 3257 A9 00												LDA #$00
   112 3259 9D 48 03											STA $0348,X
   113 325C 9D 49 03											STA $0349,X
   114 325F 8D 2B 25											STA RY
   115 3262 8D 2C 25											STA RY+1
   116 3265												LEDIR
   117 3265 20 56 E4											JSR $E456
   118 3268 30 36												BMI ?EXIT
   119 326A C9 9B												CMP #155
   120 326C F0 29												BEQ EXIT
   121 326E 20 D3 26											JSR ASCINT
   122 3271 AC 2B 25											LDY RY
   123 3274 91 CB												STA (PCRSR),Y
   124 3276 EE 2B 25											INC RY
   125 3279 D0 05												BNE F0
   126 327B E6 CC												INC PCRSR+1
   127 327D EE 2C 25											INC RY+1
   128 3280												F0
   129 3280 AC 2C 25											LDY RY+1
   130 3283 C0 01												CPY #$01
   131 3285 D0 0D												BNE F1
   132 3287 AC 2B 25											LDY RY
   133 328A C0 68												CPY #104	;$68
   134 328C 90 06												BCC F1
   135 328E 20 AE 32											JSR PAUSE
   136 3291 EE 2B 25											INC RY
   137 3294												F1
   138 3294 4C 65 32											JMP LEDIR
   139 3297												EXIT
   140 3297 EE 2B 25											INC RY
   141 329A EE 2B 25											INC RY
   142 												;	INC RY
   143 329D 4C 65 32											JMP LEDIR
   144 32A0												?EXIT
   145 32A0 20 12 32											JSR CLOSE
   146 32A3 20 AE 32											JSR PAUSE
   147 32A6 20 D1 31											JSR CLS
   148 32A9 68												PLA
   149 32AA 68												PLA
   150 32AB 4C 79 2E											JMP STARTPR
   151 32AE												PAUSE
   152 32AE AD 1F D0											LDA 53279
   153 32B1 C9 06												CMP #$06
   154 32B3 D0 F9												BNE PAUSE
   155 32B5 20 D1 31											JSR CLS
   156 32B8 A9 00												LDA #$00
   157 32BA 8D 2B 25											STA RY
   158 32BD 8D 2C 25											STA RY+1
   159 32C0 A9 41												LDA # <??DIR
   160 32C2 85 CB												STA PCRSR
   161 32C4 A9 30												LDA # >??DIR
   162 32C6 85 CC												STA PCRSR+1
   163 32C8 A2 10												LDX #$10
   164 32CA 60												RTS
   165 												;************************************************
   166 												;FUNCION QUE PERMITE PODER REALIZAR CAMBIOS
   167 												;DE BANCOS DE MEMORIA EN UNA CARGA
   168 												;************************************************
   169 32CB												CAMBIOBANCO
   170 32CB AE 2B 25											LDX RY
   171 32CE EC 2A 25										    CPX BANKOS
   172 32D1 F0 02												BEQ	FINCAMBIOBANCO
   173 32D3 B0 0B											    BCS ERRORBANQUEO
   174 32D5												FINCAMBIOBANCO	
   175 32D5 BD 00 06											LDA TABMEMBANKS,X
   176 32D8 8D 01 D3										    STA $D301
   177 32DB E8												INX
   178 32DC 8E 2B 25											STX RY
   179 32DF 60												RTS
   180 												;************************************************
   181 												;EN CASO QUE SOBREPASE LA CANTIDAD DE BANCOS
   182 												;ENCONTRADOS NOS REDIRECCIONA A MOSTRAR EL
   183 												;DIRECTORIO EN PANTALLA
   184 												;************************************************
   185 32E0												ERRORBANQUEO
   186 32E0 4C 1C 32											JMP DIR
   187 												;************************************************
   188 												;FUNCION QUE NOS PERMITE PODER REALIZAR CARGA
   189 												;DE DATOS EN MEMORIA
   190 												;************************************************
   191 32E3												FGET
   192 32E3 A0 00												LDY #$00
   193 32E5 8C 2E 25											STY LEN
   194 32E8 8C 2F 25											STY LEN+1
   195 32EB 8C 30 25											STY LEN+2
   196 32EE C8												INY
   197 32EF 8C 2B 25											STY RY
   198 32F2 20 2A 26											JSR LIMPIOVAL
   199 32F5												LOPFGET
   200 32F5 20 CB 32											JSR CAMBIOBANCO	;REALIZO CAMBIO DE BANCO
   201 32F8 20 4B 2D											JSR ESPORTB		;MUESTRO EL PORTB EN PANTALLA
   202 32FB A2 10												LDX #$10
   203 32FD A9 07												LDA #$07
   204 32FF 9D 42 03											STA $0342,X
   205 3302 A9 00												LDA # <BAFER	;SE CARGA EN $4000
   206 3304 9D 44 03											STA $0344,X
   207 3307 A9 40												LDA # >BAFER
   208 3309 9D 45 03											STA $0345,X
   209 330C A9 00												LDA # <LENGHT	;CANTIDAD DE BYTES QUE SE CARGAN
   210 330E 9D 48 03											STA $0348,X
   211 3311 A9 40												LDA # >LENGHT
   212 3313 9D 49 03											STA $0349,X
   213 3316												??FGET
   214 3316 20 56 E4											JSR $E456
   215 												;************************************************
   216 												;REALIZO SUMA DE BYTES POR BANCO Y LO GUARDO EN
   217 												;LA VARIABLE VOLATIL LEN
   218 												;************************************************
   219 3319 18												CLC
   220 331A AD 12 30											LDA BYTES
   221 331D 7D 48 03											ADC $0348,X
   222 3320 8D 12 30											STA BYTES
   223 3323 8D 2E 25											STA LEN
   224 3326 AD 13 30											LDA BYTES+1
   225 3329 7D 49 03											ADC $0349,X
   226 332C 8D 13 30											STA BYTES+1
   227 332F 8D 2F 25											STA LEN+1
   228 3332 AD 14 30											LDA BYTES+2
   229 3335 69 00												ADC #$00
   230 3337 8D 14 30											STA BYTES+2
   231 333A 8D 30 25											STA LEN+2
   232 333D BD 49 03											LDA $0349,X
   233 3340 C9 40												CMP # >LENGHT
   234 3342 F0 B1												BEQ LOPFGET
   235 3344 C0 88												CPY #136	;$88
   236 3346 F0 0C												BEQ ?FGET
   237 3348 20 12 32											JSR CLOSE
   238 334B 20 D1 31											JSR CLS
   239 334E A2 00												LDX #$00
   240 3350 9A												TXS
   241 3351 4C 79 2E											JMP STARTPR
   242 3354												?FGET
   243 3354 20 A4 2D											JSR ESBYTESLEIDOS
   244 3357 20 5B 33											JSR PONBLOQUES
   245 335A 60											    RTS
   246 335B												PONBLOQUES
   247 335B 38												SEC
   248 335C AD 2E 25											LDA LEN
   249 335F ED 17 30											SBC BYTESBLOQUES
   250 3362 8D 2E 25											STA LEN
   251 3365 AD 2F 25											LDA LEN+1
   252 3368 E9 00												SBC #0
   253 336A 8D 2F 25											STA LEN+1
   254 336D AD 30 25											LDA LEN+2
   255 3370 E9 00												SBC #0
   256 3372 8D 30 25											STA LEN+2
   257 												;SUMO BLOQUES
   258 3375 18												CLC
   259 3376 AD 15 30											LDA BLOQUES
   260 3379 69 01												ADC #$01
   261 337B 8D 15 30											STA BLOQUES
   262 337E AD 16 30											LDA BLOQUES+1
   263 3381 69 00												ADC #$00
   264 3383 8D 16 30											STA BLOQUES+1
   265
   266 3386 AD 30 25											LDA LEN+2
   267 3389 C9 00												CMP #$00
   268 338B D0 CE												BNE PONBLOQUES
   269 338D AD 2F 25											LDA LEN+1
   270 3390 C9 00												CMP #$00
   271 3392 D0 C7												BNE PONBLOQUES
   272
   273 3394 18												CLC
   274 3395 AD 15 30											LDA BLOQUES
   275 3398 69 01												ADC #$01
   276 339A 8D 15 30											STA BLOQUES
   277 339D AD 16 30											LDA BLOQUES+1
   278 33A0 69 00												ADC #$00
   279 33A2 8D 16 30											STA BLOQUES+1
   280
   281 33A5 20 CB 2D											JSR ESBLOQUESLIEDOS
   282 33A8 60												RTS
   534 33A9												    ICL 'grabar.asm'
Source: grabar.asm
     1
     2 = 026F											LLOAD 	= PAG7-LOAD
     3 = 017F											LAUTO 	= PAG4-PAG7
     4 = 0002											BL4 	= LAUTO/128
     5 = 007F											LAST 	= LAUTO-128*BL4
     6 												;************************************************
     7 												;GENERA UNA PAUSA DE X SEGUNDOS YA PREDEFINIDOS
     8 												;ANTERIORMENTE EN UNA VARIABLE X
     9 												;************************************************
    10 33A9												PAUSITA
    11 33A9 8E 1C 02											STX $021C
    12 33AC												?PAUSITA
    13 33AC AE 1C 02											LDX $021C
    14 33AF D0 FB												BNE ?PAUSITA
    15 33B1 60												RTS
    16 												;************************************************
    17 												;FUNCION QUE INICIA EL SIOV PARA GRABAR DATA EN
    18 												;LA CINTA
    19 												;************************************************
    20 33B2												INITSIOV
    21 33B2 A0 0B												LDY #$0B
    22 33B4												?INITSIOV
    23 33B4 B9 C2 33											LDA DNHP,Y
    24 33B7 99 00 03											STA $0300,Y
    25 33BA 88												DEY
    26 33BB 10 F7												BPL ?INITSIOV
    27 33BD A9 00												LDA #$00
    28 33BF 85 4D												STA 77		;$4D
    29 33C1 60												RTS
    30 33C2												DNHP
    31 33C2 60 00 52 80											.BYTE $60,$00,$52,$80
    32 33C6 25 2A												.WORD BANQUEO
    33 33C8 35 00												.BYTE $35,$00
    34 33CA 00 01												.WORD $0100
    35 33CC 00 80												.BYTE $00,$80
    36 												;************************************************
    37 												;FUNCION QUE NOS PERMITE ABRIR EL PERIFERICO
    38 												;CASETERA ESPERANDO QUE SE PRESIONE RETURN
    39 												;************************************************
    40 33CE												OPENC
    41 33CE AD 0B D4											LDA VCOUNT
    42 33D1 D0 FB												BNE OPENC
    43 33D3 A9 FF												LDA #$FF
    44 33D5 8D FC 02											STA 764
    45 33D8												?OPENC
    46 33D8 A9 00											    LDA #$00
    47 33DA 85 4D											    STA 77
    48 33DC AD FC 02											LDA 764
    49 33DF C9 FF												CMP #$FF
    50 33E1 F0 F5												BEQ ?OPENC
    51 33E3 20 10 2E											JSR ESMENSAJEINICIANDO
    52 33E6 A9 FF												LDA #$FF
    53 33E8 8D FC 02											STA 764
    54 33EB 4C 40 FD											JMP $FD40	;AUDIO ATENUACION
    55 33EE												ENCRIPTOPAGINA7
    56 33EE A2 52											    LDX #TOTALENCRIPTADOPAGINA7
    57 33F0												ENCRIPTOPAGINA701
    58 33F0 18												CLC
    59 33F1 BD 72 23										    LDA STACENCRIPT,X
    60 33F4 69 12											    ADC #$12 ;$FD
    61 33F6 9D 72 23										    STA STACENCRIPT,X
    62 33F9 CA											    DEX
    63 33FA 10 F4											    BPL ENCRIPTOPAGINA701
    64 33FC 60												RTS
    65 33FD												AUTORUN
    66 33FD 20 1C 2E											JSR ESMENSAJEPAGINA7
    67 3400 A2 6F												LDX # <PAG7
    68 3402 A0 22												LDY # >PAG7
    69 3404 A9 02												LDA #$02	;02 graba 3 bloques en cinta
    70 3406 8E 4D 34											STX MVPG7+1
    71 3409 8C 4E 34											STY MVPG7+2
    72 340C 8D 2B 25											STA RY
    73 340F												FALTA
    74 340F 20 B2 33											JSR INITSIOV
    75 3412 A2 25												LDX #<BANQUEO	;??DIR
    76 3414 A0 2A												LDY #>BANQUEO	;??DIR
    77 3416 8E 04 03											STX $0304
    78 3419 8C 05 03											STY $0305
    79 341C A2 83												LDX #131		; $83
    80 341E A0 00												LDY #$00		; $00
    81 3420 8E 08 03											STX $0308
    82 3423 8C 09 03											STY $0309
    83 3426 A0 00												LDY #$00
    84 3428 98												TYA
    85 3429												CLBUF
    86 3429 99 25 2A											STA BANQUEO,Y		;??DIR,Y
    87 342C C8												INY
    88 342D C0 83												CPY #131		;$83
    89 342F D0 F8												BNE CLBUF
    90 3431 A9 55												LDA #$55
    91 3433 8D 25 2A											STA BANQUEO			;??DIR
    92 3436 8D 26 2A											STA BANQUEO+1		;??DIR+1
    93 3439 A2 FC												LDX #$FC
    94 343B A0 7F												LDY #127	;$7F
    95 343D CE 2B 25											DEC RY
    96 3440 10 07												BPL NOFIN
    97 3442 A2 FA												LDX #$FA
    98 3444 A0 7F												LDY #LAST
    99 3446 8C A7 2A											STY BANQUEO+130		;??DIR+130
   100 3449												NOFIN
   101 3449 8E 27 2A											STX BANQUEO+2		;??DIR+2
   102 344C												MVPG7
   103 344C B9 6F 22											LDA PAG7,Y
   104 344F 99 28 2A											STA BANQUEO+3,Y 	;??DIR+3,Y
   105 3452 88												DEY
   106 3453 10 F7												BPL MVPG7
   107 3455 20 59 E4											JSR $E459
   108 3458 18												CLC
   109 3459 AD 4D 34											LDA MVPG7+1
   110 345C 69 80												ADC #$80
   111 345E 8D 4D 34											STA MVPG7+1
   112 3461 AD 4E 34											LDA MVPG7+2
   113 3464 69 00												ADC #$00
   114 3466 8D 4E 34											STA MVPG7+2
   115 3469 AD 2B 25											LDA RY
   116 346C 10 A1												BPL FALTA
   117 346E 60												RTS
   118 346F												GAUTO
   119 346F 20 3F 2D											JSR LIMPIORY
   120 3472 20 EC 2C											JSR LIMPIOBANQUEO
   121 3475 20 EE 33											JSR ENCRIPTOPAGINA7
   122 3478 A9 FF												LDA #$FF
   123 347A 8D 01 D3											STA $D301
   124 347D 20 7F 27											JSR BAUD.600
   125 												;GRABAMOS LOS 3 PRIMEROS BLOQUES
   126 3480 20 FD 33											JSR AUTORUN
   127 3483 20 B2 33											JSR INITSIOV
   128 3486 20 28 2E											JSR ESMENSAJEPAGINA4
   129 												;GRABAMOS EL 4TO BLOQUE
   130 3489 A2 83												LDX # <131		;GRABA EL 4 BLOQUE CON LA INFORMACION
   131 348B A0 00												LDY # >131		;QUE CARGARA EL LOADER 
   132 348D 8E 08 03											STX $0308
   133 3490 8C 09 03											STY $0309
   134 3493 A2 EE												LDX # <PAG4
   135 3495 A0 23												LDY # >PAG4
   136 3497 8E 04 03											STX $0304
   137 349A 8C 05 03											STY $0305
   138 349D 20 59 E4											JSR $E459
   139 34A0 20 B2 33											JSR INITSIOV
   140 34A3 A2 40												LDX #$40		;GENREAMOS UNA PEQUEÑA PAUSA PARA QUE SE
   141 34A5 20 A9 33											JSR PAUSITA		;ACTIVE LA ROM A RAM DE LA PAGINA7
   142 												;VALIDAMOS SI ES A 600 O 800 BAUDIOS
   143 34A8 AD D9 2C											LDA SISTEMA
   144 34AB C9 00												CMP #$00
   145 34AD F0 03												BEQ GAUTOLOADER
   146 												;SI ES A 800 CAMBIAMOS LA VELOCIDAD DE GRABACION
   147 34AF 20 89 27											JSR BAUD.800
   148 												;GRABAMOS EL LOADER
   149 34B2												GAUTOLOADER
   150 34B2 20 34 2E											JSR ESMENSAJEPAGINALOAD
   151 34B5 A2 6F												LDX # <LARGOLOADER	;GRABAMOS EL LOADER EN PANTALLA
   152 34B7 A0 02												LDY # >LARGOLOADER
   153 34B9 8E 08 03											STX $0308
   154 34BC 8C 09 03											STY $0309
   155 34BF A2 00												LDX # <LOAD
   156 34C1 A0 20												LDY # >LOAD
   157 34C3 8E 04 03											STX $0304
   158 34C6 8C 05 03											STY $0305
   159 34C9 20 59 E4											JSR $E459
   160 												;GRABAMOS EL ARCHIVO
   161 34CC 60											    RTS
